
AVRASM ver. 2.1.30  C:\Users\PC\OneDrive\Desktop\CodeVisionCoding\Wls\Algorithm\List\Algorithm.asm Sat Dec 19 16:22:34 2020

C:\Users\PC\OneDrive\Desktop\CodeVisionCoding\Wls\Algorithm\List\Algorithm.asm(1061): warning: Register r4 already defined by the .DEF directive
C:\Users\PC\OneDrive\Desktop\CodeVisionCoding\Wls\Algorithm\List\Algorithm.asm(1062): warning: Register r6 already defined by the .DEF directive
C:\Users\PC\OneDrive\Desktop\CodeVisionCoding\Wls\Algorithm\List\Algorithm.asm(1063): warning: Register r9 already defined by the .DEF directive
C:\Users\PC\OneDrive\Desktop\CodeVisionCoding\Wls\Algorithm\List\Algorithm.asm(1064): warning: Register r10 already defined by the .DEF directive
C:\Users\PC\OneDrive\Desktop\CodeVisionCoding\Wls\Algorithm\List\Algorithm.asm(1065): warning: Register r12 already defined by the .DEF directive
                 
                 
                 ;CodeVisionAVR C Compiler V2.05.0 Professional
                 ;(C) Copyright 1998-2010 Pavel Haiduc, HP InfoTech s.r.l.
                 ;http://www.hpinfotech.com
                 
                 ;Chip type                : ATmega128L
                 ;Program type             : Application
                 ;Clock frequency          : 16.000000 MHz
                 ;Memory model             : Small
                 ;Optimize for             : Size
                 ;(s)printf features       : int, width
                 ;(s)scanf features        : int, width
                 ;External RAM size        : 0
                 ;Data Stack size          : 1024 byte(s)
                 ;Heap size                : 0 byte(s)
                 ;Promote 'char' to 'int'  : Yes
                 ;'char' is unsigned       : Yes
                 ;8 bit enums              : Yes
                 ;global 'const' stored in FLASH: No
                 ;Enhanced core instructions    : On
                 ;Smart register allocation     : On
                 ;Automatic register allocation : On
                 
                 	#pragma AVRPART ADMIN PART_NAME ATmega128L
                 	#pragma AVRPART MEMORY PROG_FLASH 131072
                 	#pragma AVRPART MEMORY EEPROM 4096
                 	#pragma AVRPART MEMORY INT_SRAM SIZE 4351
                 	#pragma AVRPART MEMORY INT_SRAM START_ADDR 0x100
                 
                 	#define CALL_SUPPORTED 1
                 
                 	.LISTMAC
                 	.EQU UDRE=0x5
                 	.EQU RXC=0x7
                 	.EQU USR=0xB
                 	.EQU UDR=0xC
                 	.EQU SPSR=0xE
                 	.EQU SPDR=0xF
                 	.EQU EERE=0x0
                 	.EQU EEWE=0x1
                 	.EQU EEMWE=0x2
                 	.EQU EECR=0x1C
                 	.EQU EEDR=0x1D
                 	.EQU EEARL=0x1E
                 	.EQU EEARH=0x1F
                 	.EQU WDTCR=0x21
                 	.EQU MCUCR=0x35
                 	.EQU RAMPZ=0x3B
                 	.EQU SPL=0x3D
                 	.EQU SPH=0x3E
                 	.EQU SREG=0x3F
                 	.EQU XMCRA=0x6D
                 	.EQU XMCRB=0x6C
                 
                 	.DEF R0X0=R0
                 	.DEF R0X1=R1
                 	.DEF R0X2=R2
                 	.DEF R0X3=R3
                 	.DEF R0X4=R4
                 	.DEF R0X5=R5
                 	.DEF R0X6=R6
                 	.DEF R0X7=R7
                 	.DEF R0X8=R8
                 	.DEF R0X9=R9
                 	.DEF R0XA=R10
                 	.DEF R0XB=R11
                 	.DEF R0XC=R12
                 	.DEF R0XD=R13
                 	.DEF R0XE=R14
                 	.DEF R0XF=R15
                 	.DEF R0X10=R16
                 	.DEF R0X11=R17
                 	.DEF R0X12=R18
                 	.DEF R0X13=R19
                 	.DEF R0X14=R20
                 	.DEF R0X15=R21
                 	.DEF R0X16=R22
                 	.DEF R0X17=R23
                 	.DEF R0X18=R24
                 	.DEF R0X19=R25
                 	.DEF R0X1A=R26
                 	.DEF R0X1B=R27
                 	.DEF R0X1C=R28
                 	.DEF R0X1D=R29
                 	.DEF R0X1E=R30
                 	.DEF R0X1F=R31
                 
                 	.EQU __SRAM_START=0x0100
                 	.EQU __SRAM_END=0x10FF
                 	.EQU __DSTACK_SIZE=0x0400
                 	.EQU __HEAP_SIZE=0x0000
                 	.EQU __CLEAR_SRAM_SIZE=__SRAM_END-__SRAM_START+1
                 
                 	.MACRO __CPD1N
                 	CPI  R30,LOW(@0)
                 	LDI  R26,HIGH(@0)
                 	CPC  R31,R26
                 	LDI  R26,BYTE3(@0)
                 	CPC  R22,R26
                 	LDI  R26,BYTE4(@0)
                 	CPC  R23,R26
                 	.ENDM
                 
                 	.MACRO __CPD2N
                 	CPI  R26,LOW(@0)
                 	LDI  R30,HIGH(@0)
                 	CPC  R27,R30
                 	LDI  R30,BYTE3(@0)
                 	CPC  R24,R30
                 	LDI  R30,BYTE4(@0)
                 	CPC  R25,R30
                 	.ENDM
                 
                 	.MACRO __CPWRR
                 	CP   R@0,R@2
                 	CPC  R@1,R@3
                 	.ENDM
                 
                 	.MACRO __CPWRN
                 	CPI  R@0,LOW(@2)
                 	LDI  R30,HIGH(@2)
                 	CPC  R@1,R30
                 	.ENDM
                 
                 	.MACRO __ADDB1MN
                 	SUBI R30,LOW(-@0-(@1))
                 	.ENDM
                 
                 	.MACRO __ADDB2MN
                 	SUBI R26,LOW(-@0-(@1))
                 	.ENDM
                 
                 	.MACRO __ADDW1MN
                 	SUBI R30,LOW(-@0-(@1))
                 	SBCI R31,HIGH(-@0-(@1))
                 	.ENDM
                 
                 	.MACRO __ADDW2MN
                 	SUBI R26,LOW(-@0-(@1))
                 	SBCI R27,HIGH(-@0-(@1))
                 	.ENDM
                 
                 	.MACRO __ADDW1FN
                 	SUBI R30,LOW(-2*@0-(@1))
                 	SBCI R31,HIGH(-2*@0-(@1))
                 	.ENDM
                 
                 	.MACRO __ADDD1FN
                 	SUBI R30,LOW(-2*@0-(@1))
                 	SBCI R31,HIGH(-2*@0-(@1))
                 	SBCI R22,BYTE3(-2*@0-(@1))
                 	.ENDM
                 
                 	.MACRO __ADDD1N
                 	SUBI R30,LOW(-@0)
                 	SBCI R31,HIGH(-@0)
                 	SBCI R22,BYTE3(-@0)
                 	SBCI R23,BYTE4(-@0)
                 	.ENDM
                 
                 	.MACRO __ADDD2N
                 	SUBI R26,LOW(-@0)
                 	SBCI R27,HIGH(-@0)
                 	SBCI R24,BYTE3(-@0)
                 	SBCI R25,BYTE4(-@0)
                 	.ENDM
                 
                 	.MACRO __SUBD1N
                 	SUBI R30,LOW(@0)
                 	SBCI R31,HIGH(@0)
                 	SBCI R22,BYTE3(@0)
                 	SBCI R23,BYTE4(@0)
                 	.ENDM
                 
                 	.MACRO __SUBD2N
                 	SUBI R26,LOW(@0)
                 	SBCI R27,HIGH(@0)
                 	SBCI R24,BYTE3(@0)
                 	SBCI R25,BYTE4(@0)
                 	.ENDM
                 
                 	.MACRO __ANDBMNN
                 	LDS  R30,@0+(@1)
                 	ANDI R30,LOW(@2)
                 	STS  @0+(@1),R30
                 	.ENDM
                 
                 	.MACRO __ANDWMNN
                 	LDS  R30,@0+(@1)
                 	ANDI R30,LOW(@2)
                 	STS  @0+(@1),R30
                 	LDS  R30,@0+(@1)+1
                 	ANDI R30,HIGH(@2)
                 	STS  @0+(@1)+1,R30
                 	.ENDM
                 
                 	.MACRO __ANDD1N
                 	ANDI R30,LOW(@0)
                 	ANDI R31,HIGH(@0)
                 	ANDI R22,BYTE3(@0)
                 	ANDI R23,BYTE4(@0)
                 	.ENDM
                 
                 	.MACRO __ANDD2N
                 	ANDI R26,LOW(@0)
                 	ANDI R27,HIGH(@0)
                 	ANDI R24,BYTE3(@0)
                 	ANDI R25,BYTE4(@0)
                 	.ENDM
                 
                 	.MACRO __ORBMNN
                 	LDS  R30,@0+(@1)
                 	ORI  R30,LOW(@2)
                 	STS  @0+(@1),R30
                 	.ENDM
                 
                 	.MACRO __ORWMNN
                 	LDS  R30,@0+(@1)
                 	ORI  R30,LOW(@2)
                 	STS  @0+(@1),R30
                 	LDS  R30,@0+(@1)+1
                 	ORI  R30,HIGH(@2)
                 	STS  @0+(@1)+1,R30
                 	.ENDM
                 
                 	.MACRO __ORD1N
                 	ORI  R30,LOW(@0)
                 	ORI  R31,HIGH(@0)
                 	ORI  R22,BYTE3(@0)
                 	ORI  R23,BYTE4(@0)
                 	.ENDM
                 
                 	.MACRO __ORD2N
                 	ORI  R26,LOW(@0)
                 	ORI  R27,HIGH(@0)
                 	ORI  R24,BYTE3(@0)
                 	ORI  R25,BYTE4(@0)
                 	.ENDM
                 
                 	.MACRO __DELAY_USB
                 	LDI  R24,LOW(@0)
                 __DELAY_USB_LOOP:
                 	DEC  R24
                 	BRNE __DELAY_USB_LOOP
                 	.ENDM
                 
                 	.MACRO __DELAY_USW
                 	LDI  R24,LOW(@0)
                 	LDI  R25,HIGH(@0)
                 __DELAY_USW_LOOP:
                 	SBIW R24,1
                 	BRNE __DELAY_USW_LOOP
                 	.ENDM
                 
                 	.MACRO __GETD1S
                 	LDD  R30,Y+@0
                 	LDD  R31,Y+@0+1
                 	LDD  R22,Y+@0+2
                 	LDD  R23,Y+@0+3
                 	.ENDM
                 
                 	.MACRO __GETD2S
                 	LDD  R26,Y+@0
                 	LDD  R27,Y+@0+1
                 	LDD  R24,Y+@0+2
                 	LDD  R25,Y+@0+3
                 	.ENDM
                 
                 	.MACRO __PUTD1S
                 	STD  Y+@0,R30
                 	STD  Y+@0+1,R31
                 	STD  Y+@0+2,R22
                 	STD  Y+@0+3,R23
                 	.ENDM
                 
                 	.MACRO __PUTD2S
                 	STD  Y+@0,R26
                 	STD  Y+@0+1,R27
                 	STD  Y+@0+2,R24
                 	STD  Y+@0+3,R25
                 	.ENDM
                 
                 	.MACRO __PUTDZ2
                 	STD  Z+@0,R26
                 	STD  Z+@0+1,R27
                 	STD  Z+@0+2,R24
                 	STD  Z+@0+3,R25
                 	.ENDM
                 
                 	.MACRO __CLRD1S
                 	STD  Y+@0,R30
                 	STD  Y+@0+1,R30
                 	STD  Y+@0+2,R30
                 	STD  Y+@0+3,R30
                 	.ENDM
                 
                 	.MACRO __POINTB1MN
                 	LDI  R30,LOW(@0+(@1))
                 	.ENDM
                 
                 	.MACRO __POINTW1MN
                 	LDI  R30,LOW(@0+(@1))
                 	LDI  R31,HIGH(@0+(@1))
                 	.ENDM
                 
                 	.MACRO __POINTD1M
                 	LDI  R30,LOW(@0)
                 	LDI  R31,HIGH(@0)
                 	LDI  R22,BYTE3(@0)
                 	LDI  R23,BYTE4(@0)
                 	.ENDM
                 
                 	.MACRO __POINTW1FN
                 	LDI  R30,LOW(2*@0+(@1))
                 	LDI  R31,HIGH(2*@0+(@1))
                 	.ENDM
                 
                 	.MACRO __POINTD1FN
                 	LDI  R30,LOW(2*@0+(@1))
                 	LDI  R31,HIGH(2*@0+(@1))
                 	LDI  R22,BYTE3(2*@0+(@1))
                 	LDI  R23,BYTE4(2*@0+(@1))
                 	.ENDM
                 
                 	.MACRO __POINTB2MN
                 	LDI  R26,LOW(@0+(@1))
                 	.ENDM
                 
                 	.MACRO __POINTW2MN
                 	LDI  R26,LOW(@0+(@1))
                 	LDI  R27,HIGH(@0+(@1))
                 	.ENDM
                 
                 	.MACRO __POINTBRM
                 	LDI  R@0,LOW(@1)
                 	.ENDM
                 
                 	.MACRO __POINTWRM
                 	LDI  R@0,LOW(@2)
                 	LDI  R@1,HIGH(@2)
                 	.ENDM
                 
                 	.MACRO __POINTBRMN
                 	LDI  R@0,LOW(@1+(@2))
                 	.ENDM
                 
                 	.MACRO __POINTWRMN
                 	LDI  R@0,LOW(@2+(@3))
                 	LDI  R@1,HIGH(@2+(@3))
                 	.ENDM
                 
                 	.MACRO __POINTWRFN
                 	LDI  R@0,LOW(@2*2+(@3))
                 	LDI  R@1,HIGH(@2*2+(@3))
                 	.ENDM
                 
                 	.MACRO __GETD1N
                 	LDI  R30,LOW(@0)
                 	LDI  R31,HIGH(@0)
                 	LDI  R22,BYTE3(@0)
                 	LDI  R23,BYTE4(@0)
                 	.ENDM
                 
                 	.MACRO __GETD2N
                 	LDI  R26,LOW(@0)
                 	LDI  R27,HIGH(@0)
                 	LDI  R24,BYTE3(@0)
                 	LDI  R25,BYTE4(@0)
                 	.ENDM
                 
                 	.MACRO __GETB1MN
                 	LDS  R30,@0+(@1)
                 	.ENDM
                 
                 	.MACRO __GETB1HMN
                 	LDS  R31,@0+(@1)
                 	.ENDM
                 
                 	.MACRO __GETW1MN
                 	LDS  R30,@0+(@1)
                 	LDS  R31,@0+(@1)+1
                 	.ENDM
                 
                 	.MACRO __GETD1MN
                 	LDS  R30,@0+(@1)
                 	LDS  R31,@0+(@1)+1
                 	LDS  R22,@0+(@1)+2
                 	LDS  R23,@0+(@1)+3
                 	.ENDM
                 
                 	.MACRO __GETBRMN
                 	LDS  R@0,@1+(@2)
                 	.ENDM
                 
                 	.MACRO __GETWRMN
                 	LDS  R@0,@2+(@3)
                 	LDS  R@1,@2+(@3)+1
                 	.ENDM
                 
                 	.MACRO __GETWRZ
                 	LDD  R@0,Z+@2
                 	LDD  R@1,Z+@2+1
                 	.ENDM
                 
                 	.MACRO __GETD2Z
                 	LDD  R26,Z+@0
                 	LDD  R27,Z+@0+1
                 	LDD  R24,Z+@0+2
                 	LDD  R25,Z+@0+3
                 	.ENDM
                 
                 	.MACRO __GETB2MN
                 	LDS  R26,@0+(@1)
                 	.ENDM
                 
                 	.MACRO __GETW2MN
                 	LDS  R26,@0+(@1)
                 	LDS  R27,@0+(@1)+1
                 	.ENDM
                 
                 	.MACRO __GETD2MN
                 	LDS  R26,@0+(@1)
                 	LDS  R27,@0+(@1)+1
                 	LDS  R24,@0+(@1)+2
                 	LDS  R25,@0+(@1)+3
                 	.ENDM
                 
                 	.MACRO __PUTB1MN
                 	STS  @0+(@1),R30
                 	.ENDM
                 
                 	.MACRO __PUTW1MN
                 	STS  @0+(@1),R30
                 	STS  @0+(@1)+1,R31
                 	.ENDM
                 
                 	.MACRO __PUTD1MN
                 	STS  @0+(@1),R30
                 	STS  @0+(@1)+1,R31
                 	STS  @0+(@1)+2,R22
                 	STS  @0+(@1)+3,R23
                 	.ENDM
                 
                 	.MACRO __PUTB1EN
                 	LDI  R26,LOW(@0+(@1))
                 	LDI  R27,HIGH(@0+(@1))
                 	CALL __EEPROMWRB
                 	.ENDM
                 
                 	.MACRO __PUTW1EN
                 	LDI  R26,LOW(@0+(@1))
                 	LDI  R27,HIGH(@0+(@1))
                 	CALL __EEPROMWRW
                 	.ENDM
                 
                 	.MACRO __PUTD1EN
                 	LDI  R26,LOW(@0+(@1))
                 	LDI  R27,HIGH(@0+(@1))
                 	CALL __EEPROMWRD
                 	.ENDM
                 
                 	.MACRO __PUTBR0MN
                 	STS  @0+(@1),R0
                 	.ENDM
                 
                 	.MACRO __PUTBMRN
                 	STS  @0+(@1),R@2
                 	.ENDM
                 
                 	.MACRO __PUTWMRN
                 	STS  @0+(@1),R@2
                 	STS  @0+(@1)+1,R@3
                 	.ENDM
                 
                 	.MACRO __PUTBZR
                 	STD  Z+@1,R@0
                 	.ENDM
                 
                 	.MACRO __PUTWZR
                 	STD  Z+@2,R@0
                 	STD  Z+@2+1,R@1
                 	.ENDM
                 
                 	.MACRO __GETW1R
                 	MOV  R30,R@0
                 	MOV  R31,R@1
                 	.ENDM
                 
                 	.MACRO __GETW2R
                 	MOV  R26,R@0
                 	MOV  R27,R@1
                 	.ENDM
                 
                 	.MACRO __GETWRN
                 	LDI  R@0,LOW(@2)
                 	LDI  R@1,HIGH(@2)
                 	.ENDM
                 
                 	.MACRO __PUTW1R
                 	MOV  R@0,R30
                 	MOV  R@1,R31
                 	.ENDM
                 
                 	.MACRO __PUTW2R
                 	MOV  R@0,R26
                 	MOV  R@1,R27
                 	.ENDM
                 
                 	.MACRO __ADDWRN
                 	SUBI R@0,LOW(-@2)
                 	SBCI R@1,HIGH(-@2)
                 	.ENDM
                 
                 	.MACRO __ADDWRR
                 	ADD  R@0,R@2
                 	ADC  R@1,R@3
                 	.ENDM
                 
                 	.MACRO __SUBWRN
                 	SUBI R@0,LOW(@2)
                 	SBCI R@1,HIGH(@2)
                 	.ENDM
                 
                 	.MACRO __SUBWRR
                 	SUB  R@0,R@2
                 	SBC  R@1,R@3
                 	.ENDM
                 
                 	.MACRO __ANDWRN
                 	ANDI R@0,LOW(@2)
                 	ANDI R@1,HIGH(@2)
                 	.ENDM
                 
                 	.MACRO __ANDWRR
                 	AND  R@0,R@2
                 	AND  R@1,R@3
                 	.ENDM
                 
                 	.MACRO __ORWRN
                 	ORI  R@0,LOW(@2)
                 	ORI  R@1,HIGH(@2)
                 	.ENDM
                 
                 	.MACRO __ORWRR
                 	OR   R@0,R@2
                 	OR   R@1,R@3
                 	.ENDM
                 
                 	.MACRO __EORWRR
                 	EOR  R@0,R@2
                 	EOR  R@1,R@3
                 	.ENDM
                 
                 	.MACRO __GETWRS
                 	LDD  R@0,Y+@2
                 	LDD  R@1,Y+@2+1
                 	.ENDM
                 
                 	.MACRO __PUTBSR
                 	STD  Y+@1,R@0
                 	.ENDM
                 
                 	.MACRO __PUTWSR
                 	STD  Y+@2,R@0
                 	STD  Y+@2+1,R@1
                 	.ENDM
                 
                 	.MACRO __MOVEWRR
                 	MOV  R@0,R@2
                 	MOV  R@1,R@3
                 	.ENDM
                 
                 	.MACRO __INWR
                 	IN   R@0,@2
                 	IN   R@1,@2+1
                 	.ENDM
                 
                 	.MACRO __OUTWR
                 	OUT  @2+1,R@1
                 	OUT  @2,R@0
                 	.ENDM
                 
                 	.MACRO __CALL1MN
                 	LDS  R30,@0+(@1)
                 	LDS  R31,@0+(@1)+1
                 	ICALL
                 	.ENDM
                 
                 	.MACRO __CALL1FN
                 	LDI  R30,LOW(2*@0+(@1))
                 	LDI  R31,HIGH(2*@0+(@1))
                 	CALL __GETW1PF
                 	ICALL
                 	.ENDM
                 
                 	.MACRO __CALL2EN
                 	LDI  R26,LOW(@0+(@1))
                 	LDI  R27,HIGH(@0+(@1))
                 	CALL __EEPROMRDW
                 	ICALL
                 	.ENDM
                 
                 	.MACRO __GETW1STACK
                 	IN   R26,SPL
                 	IN   R27,SPH
                 	ADIW R26,@0+1
                 	LD   R30,X+
                 	LD   R31,X
                 	.ENDM
                 
                 	.MACRO __GETD1STACK
                 	IN   R26,SPL
                 	IN   R27,SPH
                 	ADIW R26,@0+1
                 	LD   R30,X+
                 	LD   R31,X+
                 	LD   R22,X
                 	.ENDM
                 
                 	.MACRO __NBST
                 	BST  R@0,@1
                 	IN   R30,SREG
                 	LDI  R31,0x40
                 	EOR  R30,R31
                 	OUT  SREG,R30
                 	.ENDM
                 
                 
                 	.MACRO __PUTB1SN
                 	LDD  R26,Y+@0
                 	LDD  R27,Y+@0+1
                 	SUBI R26,LOW(-@1)
                 	SBCI R27,HIGH(-@1)
                 	ST   X,R30
                 	.ENDM
                 
                 	.MACRO __PUTW1SN
                 	LDD  R26,Y+@0
                 	LDD  R27,Y+@0+1
                 	SUBI R26,LOW(-@1)
                 	SBCI R27,HIGH(-@1)
                 	ST   X+,R30
                 	ST   X,R31
                 	.ENDM
                 
                 	.MACRO __PUTD1SN
                 	LDD  R26,Y+@0
                 	LDD  R27,Y+@0+1
                 	SUBI R26,LOW(-@1)
                 	SBCI R27,HIGH(-@1)
                 	CALL __PUTDP1
                 	.ENDM
                 
                 	.MACRO __PUTB1SNS
                 	LDD  R26,Y+@0
                 	LDD  R27,Y+@0+1
                 	ADIW R26,@1
                 	ST   X,R30
                 	.ENDM
                 
                 	.MACRO __PUTW1SNS
                 	LDD  R26,Y+@0
                 	LDD  R27,Y+@0+1
                 	ADIW R26,@1
                 	ST   X+,R30
                 	ST   X,R31
                 	.ENDM
                 
                 	.MACRO __PUTD1SNS
                 	LDD  R26,Y+@0
                 	LDD  R27,Y+@0+1
                 	ADIW R26,@1
                 	CALL __PUTDP1
                 	.ENDM
                 
                 	.MACRO __PUTB1PMN
                 	LDS  R26,@0
                 	LDS  R27,@0+1
                 	SUBI R26,LOW(-@1)
                 	SBCI R27,HIGH(-@1)
                 	ST   X,R30
                 	.ENDM
                 
                 	.MACRO __PUTW1PMN
                 	LDS  R26,@0
                 	LDS  R27,@0+1
                 	SUBI R26,LOW(-@1)
                 	SBCI R27,HIGH(-@1)
                 	ST   X+,R30
                 	ST   X,R31
                 	.ENDM
                 
                 	.MACRO __PUTD1PMN
                 	LDS  R26,@0
                 	LDS  R27,@0+1
                 	SUBI R26,LOW(-@1)
                 	SBCI R27,HIGH(-@1)
                 	CALL __PUTDP1
                 	.ENDM
                 
                 	.MACRO __PUTB1PMNS
                 	LDS  R26,@0
                 	LDS  R27,@0+1
                 	ADIW R26,@1
                 	ST   X,R30
                 	.ENDM
                 
                 	.MACRO __PUTW1PMNS
                 	LDS  R26,@0
                 	LDS  R27,@0+1
                 	ADIW R26,@1
                 	ST   X+,R30
                 	ST   X,R31
                 	.ENDM
                 
                 	.MACRO __PUTD1PMNS
                 	LDS  R26,@0
                 	LDS  R27,@0+1
                 	ADIW R26,@1
                 	CALL __PUTDP1
                 	.ENDM
                 
                 	.MACRO __PUTB1RN
                 	MOVW R26,R@0
                 	SUBI R26,LOW(-@1)
                 	SBCI R27,HIGH(-@1)
                 	ST   X,R30
                 	.ENDM
                 
                 	.MACRO __PUTW1RN
                 	MOVW R26,R@0
                 	SUBI R26,LOW(-@1)
                 	SBCI R27,HIGH(-@1)
                 	ST   X+,R30
                 	ST   X,R31
                 	.ENDM
                 
                 	.MACRO __PUTD1RN
                 	MOVW R26,R@0
                 	SUBI R26,LOW(-@1)
                 	SBCI R27,HIGH(-@1)
                 	CALL __PUTDP1
                 	.ENDM
                 
                 	.MACRO __PUTB1RNS
                 	MOVW R26,R@0
                 	ADIW R26,@1
                 	ST   X,R30
                 	.ENDM
                 
                 	.MACRO __PUTW1RNS
                 	MOVW R26,R@0
                 	ADIW R26,@1
                 	ST   X+,R30
                 	ST   X,R31
                 	.ENDM
                 
                 	.MACRO __PUTD1RNS
                 	MOVW R26,R@0
                 	ADIW R26,@1
                 	CALL __PUTDP1
                 	.ENDM
                 
                 	.MACRO __PUTB1RON
                 	MOV  R26,R@0
                 	MOV  R27,R@1
                 	SUBI R26,LOW(-@2)
                 	SBCI R27,HIGH(-@2)
                 	ST   X,R30
                 	.ENDM
                 
                 	.MACRO __PUTW1RON
                 	MOV  R26,R@0
                 	MOV  R27,R@1
                 	SUBI R26,LOW(-@2)
                 	SBCI R27,HIGH(-@2)
                 	ST   X+,R30
                 	ST   X,R31
                 	.ENDM
                 
                 	.MACRO __PUTD1RON
                 	MOV  R26,R@0
                 	MOV  R27,R@1
                 	SUBI R26,LOW(-@2)
                 	SBCI R27,HIGH(-@2)
                 	CALL __PUTDP1
                 	.ENDM
                 
                 	.MACRO __PUTB1RONS
                 	MOV  R26,R@0
                 	MOV  R27,R@1
                 	ADIW R26,@2
                 	ST   X,R30
                 	.ENDM
                 
                 	.MACRO __PUTW1RONS
                 	MOV  R26,R@0
                 	MOV  R27,R@1
                 	ADIW R26,@2
                 	ST   X+,R30
                 	ST   X,R31
                 	.ENDM
                 
                 	.MACRO __PUTD1RONS
                 	MOV  R26,R@0
                 	MOV  R27,R@1
                 	ADIW R26,@2
                 	CALL __PUTDP1
                 	.ENDM
                 
                 
                 	.MACRO __GETB1SX
                 	MOVW R30,R28
                 	SUBI R30,LOW(-@0)
                 	SBCI R31,HIGH(-@0)
                 	LD   R30,Z
                 	.ENDM
                 
                 	.MACRO __GETB1HSX
                 	MOVW R30,R28
                 	SUBI R30,LOW(-@0)
                 	SBCI R31,HIGH(-@0)
                 	LD   R31,Z
                 	.ENDM
                 
                 	.MACRO __GETW1SX
                 	MOVW R30,R28
                 	SUBI R30,LOW(-@0)
                 	SBCI R31,HIGH(-@0)
                 	LD   R0,Z+
                 	LD   R31,Z
                 	MOV  R30,R0
                 	.ENDM
                 
                 	.MACRO __GETD1SX
                 	MOVW R30,R28
                 	SUBI R30,LOW(-@0)
                 	SBCI R31,HIGH(-@0)
                 	LD   R0,Z+
                 	LD   R1,Z+
                 	LD   R22,Z+
                 	LD   R23,Z
                 	MOVW R30,R0
                 	.ENDM
                 
                 	.MACRO __GETB2SX
                 	MOVW R26,R28
                 	SUBI R26,LOW(-@0)
                 	SBCI R27,HIGH(-@0)
                 	LD   R26,X
                 	.ENDM
                 
                 	.MACRO __GETW2SX
                 	MOVW R26,R28
                 	SUBI R26,LOW(-@0)
                 	SBCI R27,HIGH(-@0)
                 	LD   R0,X+
                 	LD   R27,X
                 	MOV  R26,R0
                 	.ENDM
                 
                 	.MACRO __GETD2SX
                 	MOVW R26,R28
                 	SUBI R26,LOW(-@0)
                 	SBCI R27,HIGH(-@0)
                 	LD   R0,X+
                 	LD   R1,X+
                 	LD   R24,X+
                 	LD   R25,X
                 	MOVW R26,R0
                 	.ENDM
                 
                 	.MACRO __GETBRSX
                 	MOVW R30,R28
                 	SUBI R30,LOW(-@1)
                 	SBCI R31,HIGH(-@1)
                 	LD   R@0,Z
                 	.ENDM
                 
                 	.MACRO __GETWRSX
                 	MOVW R30,R28
                 	SUBI R30,LOW(-@2)
                 	SBCI R31,HIGH(-@2)
                 	LD   R@0,Z+
                 	LD   R@1,Z
                 	.ENDM
                 
                 	.MACRO __GETBRSX2
                 	MOVW R26,R28
                 	SUBI R26,LOW(-@1)
                 	SBCI R27,HIGH(-@1)
                 	LD   R@0,X
                 	.ENDM
                 
                 	.MACRO __GETWRSX2
                 	MOVW R26,R28
                 	SUBI R26,LOW(-@2)
                 	SBCI R27,HIGH(-@2)
                 	LD   R@0,X+
                 	LD   R@1,X
                 	.ENDM
                 
                 	.MACRO __LSLW8SX
                 	MOVW R30,R28
                 	SUBI R30,LOW(-@0)
                 	SBCI R31,HIGH(-@0)
                 	LD   R31,Z
                 	CLR  R30
                 	.ENDM
                 
                 	.MACRO __PUTB1SX
                 	MOVW R26,R28
                 	SUBI R26,LOW(-@0)
                 	SBCI R27,HIGH(-@0)
                 	ST   X,R30
                 	.ENDM
                 
                 	.MACRO __PUTW1SX
                 	MOVW R26,R28
                 	SUBI R26,LOW(-@0)
                 	SBCI R27,HIGH(-@0)
                 	ST   X+,R30
                 	ST   X,R31
                 	.ENDM
                 
                 	.MACRO __PUTD1SX
                 	MOVW R26,R28
                 	SUBI R26,LOW(-@0)
                 	SBCI R27,HIGH(-@0)
                 	ST   X+,R30
                 	ST   X+,R31
                 	ST   X+,R22
                 	ST   X,R23
                 	.ENDM
                 
                 	.MACRO __CLRW1SX
                 	MOVW R26,R28
                 	SUBI R26,LOW(-@0)
                 	SBCI R27,HIGH(-@0)
                 	ST   X+,R30
                 	ST   X,R30
                 	.ENDM
                 
                 	.MACRO __CLRD1SX
                 	MOVW R26,R28
                 	SUBI R26,LOW(-@0)
                 	SBCI R27,HIGH(-@0)
                 	ST   X+,R30
                 	ST   X+,R30
                 	ST   X+,R30
                 	ST   X,R30
                 	.ENDM
                 
                 	.MACRO __PUTB2SX
                 	MOVW R30,R28
                 	SUBI R30,LOW(-@0)
                 	SBCI R31,HIGH(-@0)
                 	ST   Z,R26
                 	.ENDM
                 
                 	.MACRO __PUTW2SX
                 	MOVW R30,R28
                 	SUBI R30,LOW(-@0)
                 	SBCI R31,HIGH(-@0)
                 	ST   Z+,R26
                 	ST   Z,R27
                 	.ENDM
                 
                 	.MACRO __PUTD2SX
                 	MOVW R30,R28
                 	SUBI R30,LOW(-@0)
                 	SBCI R31,HIGH(-@0)
                 	ST   Z+,R26
                 	ST   Z+,R27
                 	ST   Z+,R24
                 	ST   Z,R25
                 	.ENDM
                 
                 	.MACRO __PUTBSRX
                 	MOVW R30,R28
                 	SUBI R30,LOW(-@1)
                 	SBCI R31,HIGH(-@1)
                 	ST   Z,R@0
                 	.ENDM
                 
                 	.MACRO __PUTWSRX
                 	MOVW R30,R28
                 	SUBI R30,LOW(-@2)
                 	SBCI R31,HIGH(-@2)
                 	ST   Z+,R@0
                 	ST   Z,R@1
                 	.ENDM
                 
                 	.MACRO __PUTB1SNX
                 	MOVW R26,R28
                 	SUBI R26,LOW(-@0)
                 	SBCI R27,HIGH(-@0)
                 	LD   R0,X+
                 	LD   R27,X
                 	MOV  R26,R0
                 	SUBI R26,LOW(-@1)
                 	SBCI R27,HIGH(-@1)
                 	ST   X,R30
                 	.ENDM
                 
                 	.MACRO __PUTW1SNX
                 	MOVW R26,R28
                 	SUBI R26,LOW(-@0)
                 	SBCI R27,HIGH(-@0)
                 	LD   R0,X+
                 	LD   R27,X
                 	MOV  R26,R0
                 	SUBI R26,LOW(-@1)
                 	SBCI R27,HIGH(-@1)
                 	ST   X+,R30
                 	ST   X,R31
                 	.ENDM
                 
                 	.MACRO __PUTD1SNX
                 	MOVW R26,R28
                 	SUBI R26,LOW(-@0)
                 	SBCI R27,HIGH(-@0)
                 	LD   R0,X+
                 	LD   R27,X
                 	MOV  R26,R0
                 	SUBI R26,LOW(-@1)
                 	SBCI R27,HIGH(-@1)
                 	ST   X+,R30
                 	ST   X+,R31
                 	ST   X+,R22
                 	ST   X,R23
                 	.ENDM
                 
                 	.MACRO __MULBRR
                 	MULS R@0,R@1
                 	MOVW R30,R0
                 	.ENDM
                 
                 	.MACRO __MULBRRU
                 	MUL  R@0,R@1
                 	MOVW R30,R0
                 	.ENDM
                 
                 	.MACRO __MULBRR0
                 	MULS R@0,R@1
                 	.ENDM
                 
                 	.MACRO __MULBRRU0
                 	MUL  R@0,R@1
                 	.ENDM
                 
                 	.MACRO __MULBNWRU
                 	LDI  R26,@2
                 	MUL  R26,R@0
                 	MOVW R30,R0
                 	MUL  R26,R@1
                 	ADD  R31,R0
                 	.ENDM
                 
                 ;NAME DEFINITIONS FOR GLOBAL VARIABLES ALLOCATED TO REGISTERS
                 	.DEF _LeftstepCount=R4
                 	.DEF _RightstepCount=R6
                 	.DEF _direction_control=R9
                 	.DEF _vel_counter_high_L=R10
                 	.DEF _vel_counter_high_R=R12
                 
                 	.CSEG
                 	.ORG 0x00
                 
                 ;START OF CODE MARKER
                 __START_OF_CODE:
                 
                 ;INTERRUPT VECTORS
000000 940c 00a9 	JMP  __RESET
000002 940c 0768 	JMP  _ext_int0_isr
000004 940c 076d 	JMP  _ext_int1_isr
000006 940c 0000 	JMP  0x00
000008 940c 0000 	JMP  0x00
00000a 940c 0000 	JMP  0x00
00000c 940c 0000 	JMP  0x00
00000e 940c 0000 	JMP  0x00
000010 940c 0000 	JMP  0x00
000012 940c 0000 	JMP  0x00
000014 940c 0000 	JMP  0x00
000016 940c 0000 	JMP  0x00
000018 940c 0000 	JMP  0x00
00001a 940c 0000 	JMP  0x00
00001c 940c 06af 	JMP  _timer1_ovf_isr
00001e 940c 0000 	JMP  0x00
000020 940c 0000 	JMP  0x00
000022 940c 0000 	JMP  0x00
000024 940c 0000 	JMP  0x00
000026 940c 0000 	JMP  0x00
000028 940c 0000 	JMP  0x00
00002a 940c 0000 	JMP  0x00
00002c 940c 0000 	JMP  0x00
00002e 940c 0000 	JMP  0x00
000030 940c 0000 	JMP  0x00
000032 940c 0000 	JMP  0x00
000034 940c 0000 	JMP  0x00
000036 940c 0000 	JMP  0x00
000038 940c 0000 	JMP  0x00
00003a 940c 0707 	JMP  _timer3_ovf_isr
00003c 940c 0000 	JMP  0x00
00003e 940c 0000 	JMP  0x00
000040 940c 0000 	JMP  0x00
000042 940c 0000 	JMP  0x00
000044 940c 0000 	JMP  0x00
                 
                 _tbl10_G100:
000046 2710
000047 03e8
000048 0064
000049 000a      	.DB  0x10,0x27,0xE8,0x3,0x64,0x0,0xA,0x0
00004a 0001      	.DB  0x1,0x0
                 _tbl16_G100:
00004b 1000
00004c 0100
00004d 0010
00004e 0001      	.DB  0x0,0x10,0x0,0x1,0x10,0x0,0x1,0x0
                 
                 _0x0:
00004f 656c
000050 7466
000051 3a20
000052 2520      	.DB  0x6C,0x65,0x66,0x74,0x20,0x3A,0x20,0x25
000053 2064
000054 2020
000055 6320
000056 6e65      	.DB  0x64,0x20,0x20,0x20,0x20,0x63,0x65,0x6E
000057 6574
000058 2072
000059 203a
00005a 6425      	.DB  0x74,0x65,0x72,0x20,0x3A,0x20,0x25,0x64
00005b 2020
00005c 2020
00005d 6974
00005e 6867      	.DB  0x20,0x20,0x20,0x20,0x74,0x69,0x67,0x68
00005f 2074
000060 203a
000061 6425
000062 000a      	.DB  0x74,0x20,0x3A,0x20,0x25,0x64,0xA,0x0
000063 656c
000064 7466
000065 7320
000066 6174      	.DB  0x6C,0x65,0x66,0x74,0x20,0x73,0x74,0x61
000067 646e
000068 7261
000069 2064
00006a 203a      	.DB  0x6E,0x64,0x61,0x72,0x64,0x20,0x3A,0x20
00006b 6425
00006c 2020
00006d 2020
00006e 6563      	.DB  0x25,0x64,0x20,0x20,0x20,0x20,0x63,0x65
00006f 746e
000070 7265
000071 7320
000072 6174      	.DB  0x6E,0x74,0x65,0x72,0x20,0x73,0x74,0x61
000073 646e
000074 3a20
000075 2520
000076 2064      	.DB  0x6E,0x64,0x20,0x3A,0x20,0x25,0x64,0x20
000077 2020
000078 7220
000079 6769
00007a 7468      	.DB  0x20,0x20,0x20,0x72,0x69,0x67,0x68,0x74
00007b 7320
00007c 6174
00007d 646e
00007e 3a20      	.DB  0x20,0x73,0x74,0x61,0x6E,0x64,0x20,0x3A
00007f 2520
000080 2064
000081 2020
000082 6320      	.DB  0x20,0x25,0x64,0x20,0x20,0x20,0x20,0x63
000083 6e65
000084 6574
000085 2072
000086 7473      	.DB  0x65,0x6E,0x74,0x65,0x72,0x20,0x73,0x74
000087 6e61
000088 6164
000089 6474
00008a 3a20      	.DB  0x61,0x6E,0x64,0x61,0x74,0x64,0x20,0x3A
00008b 2520
00008c 2064
00008d 2520
00008e 2064      	.DB  0x20,0x25,0x64,0x20,0x20,0x25,0x64,0x20
00008f 2520
000090 0064      	.DB  0x20,0x25,0x64,0x0
                 _0x60003:
000091 0109
000092 0405
000093 0206
000094 080a      	.DB  0x9,0x1,0x5,0x4,0x6,0x2,0xA,0x8
                 _0x60004:
000095 0809
000096 020a
000097 0406
000098 0105      	.DB  0x9,0x8,0xA,0x2,0x6,0x4,0x5,0x1
                 _0x2080060:
C:\Users\PC\OneDrive\Desktop\CodeVisionCoding\Wls\Algorithm\List\Algorithm.asm(1139): warning: .cseg .db misalignment - padding zero byte
000099 0001      	.DB  0x1
                 _0x2080000:
00009a 4e2d
00009b 4e41
00009c 4900
00009d 464e      	.DB  0x2D,0x4E,0x41,0x4E,0x0,0x49,0x4E,0x46
C:\Users\PC\OneDrive\Desktop\CodeVisionCoding\Wls\Algorithm\List\Algorithm.asm(1142): warning: .cseg .db misalignment - padding zero byte
00009e 0000      	.DB  0x0
                 
                 __GLOBAL_INI_TBL:
00009f 0008      	.DW  0x08
0000a0 0504      	.DW  _rotateR
0000a1 0122      	.DW  _0x60003*2
                 
0000a2 0008      	.DW  0x08
0000a3 050c      	.DW  _rotateL
0000a4 012a      	.DW  _0x60004*2
                 
0000a5 0001      	.DW  0x01
0000a6 0522      	.DW  __seed_G104
0000a7 0132      	.DW  _0x2080060*2
                 
                 _0xFFFFFFFF:
0000a8 0000      	.DW  0
                 
                 __RESET:
0000a9 94f8      	CLI
0000aa 27ee      	CLR  R30
0000ab bbec      	OUT  EECR,R30
                 
                 ;INTERRUPT VECTORS ARE PLACED
                 ;AT THE START OF FLASH
0000ac e0f1      	LDI  R31,1
0000ad bff5      	OUT  MCUCR,R31
0000ae bfe5      	OUT  MCUCR,R30
0000af 93e0 006c 	STS  XMCRB,R30
                 
                 ;DISABLE WATCHDOG
0000b1 e1f8      	LDI  R31,0x18
0000b2 bdf1      	OUT  WDTCR,R31
0000b3 bde1      	OUT  WDTCR,R30
                 
                 ;CLEAR R2-R14
0000b4 e08d      	LDI  R24,(14-2)+1
0000b5 e0a2      	LDI  R26,2
0000b6 27bb      	CLR  R27
                 __CLEAR_REG:
0000b7 93ed      	ST   X+,R30
0000b8 958a      	DEC  R24
0000b9 f7e9      	BRNE __CLEAR_REG
                 
                 ;CLEAR SRAM
0000ba e080      	LDI  R24,LOW(__CLEAR_SRAM_SIZE)
0000bb e190      	LDI  R25,HIGH(__CLEAR_SRAM_SIZE)
0000bc e0a0      	LDI  R26,LOW(__SRAM_START)
0000bd e0b1      	LDI  R27,HIGH(__SRAM_START)
                 __CLEAR_SRAM:
0000be 93ed      	ST   X+,R30
0000bf 9701      	SBIW R24,1
0000c0 f7e9      	BRNE __CLEAR_SRAM
                 
                 ;GLOBAL VARIABLES INITIALIZATION
0000c1 e3ee      	LDI  R30,LOW(__GLOBAL_INI_TBL*2)
0000c2 e0f1      	LDI  R31,HIGH(__GLOBAL_INI_TBL*2)
                 __GLOBAL_INI_NEXT:
0000c3 9185      	LPM  R24,Z+
0000c4 9195      	LPM  R25,Z+
0000c5 9700      	SBIW R24,0
0000c6 f061      	BREQ __GLOBAL_INI_END
0000c7 91a5      	LPM  R26,Z+
0000c8 91b5      	LPM  R27,Z+
0000c9 9005      	LPM  R0,Z+
0000ca 9015      	LPM  R1,Z+
0000cb 01bf      	MOVW R22,R30
0000cc 01f0      	MOVW R30,R0
                 __GLOBAL_INI_LOOP:
0000cd 9005      	LPM  R0,Z+
0000ce 920d      	ST   X+,R0
0000cf 9701      	SBIW R24,1
0000d0 f7e1      	BRNE __GLOBAL_INI_LOOP
0000d1 01fb      	MOVW R30,R22
0000d2 cff0      	RJMP __GLOBAL_INI_NEXT
                 __GLOBAL_INI_END:
                 
0000d3 bf8b      	OUT  RAMPZ,R24
                 
                 ;HARDWARE STACK POINTER INITIALIZATION
0000d4 efef      	LDI  R30,LOW(__SRAM_END-__HEAP_SIZE)
0000d5 bfed      	OUT  SPL,R30
0000d6 e1e0      	LDI  R30,HIGH(__SRAM_END-__HEAP_SIZE)
0000d7 bfee      	OUT  SPH,R30
                 
                 ;DATA STACK POINTER INITIALIZATION
0000d8 e0c0      	LDI  R28,LOW(__SRAM_START+__DSTACK_SIZE)
0000d9 e0d5      	LDI  R29,HIGH(__SRAM_START+__DSTACK_SIZE)
                 
0000da 940c 00ec 	JMP  _main
                 
                 	.ESEG
                 	.ORG 0
                 
                 	.DSEG
                 	.ORG 0x500
                 
                 	.CSEG
                 ;#include <mega128.h>
                 	#ifndef __SLEEP_DEFINED__
                 	#define __SLEEP_DEFINED__
                 	.EQU __se_bit=0x20
                 	.EQU __sm_mask=0x1C
                 	.EQU __sm_powerdown=0x10
                 	.EQU __sm_powersave=0x18
                 	.EQU __sm_standby=0x14
                 	.EQU __sm_ext_standby=0x1C
                 	.EQU __sm_adc_noise_red=0x08
                 	.SET power_ctrl_reg=mcucr
                 	#endif
                 ;#include <delay.h>
                 ;#include "Sensor.h"
                 ;#include "StepMotor.h"
                 ;#include "LED.h"
                 ;#include "switch.h"
                 ;#include "Algorithm.h"
                 ;#include <stdio.h>
                 ;
                 ;// Declare your global variables here
                 ;extern unsigned int VelocityLeftmotorTCNT1, VelocityRightmotorTCNT3;
                 ;
                 ;
                 ;void InitializeUART(void){ // UART 통신을 위해 각 register를 초기화 한다.
                 ; 0000 000E void InitializeUART(void){
                 
                 	.CSEG
                 _InitializeUART:
                 ; 0000 000F  // USART1 initialization
                 ; 0000 0010  // Communication Parameters: 8 Data, 1 Stop, No Parity
                 ; 0000 0011  // USART1 Receiver: On
                 ; 0000 0012  // USART1 Transmitter: On
                 ; 0000 0013  // USART1 Mode: Asynchronous
                 ; 0000 0014  // USART1 Baud Rate: 9600
                 ; 0000 0015  UCSR1A=0x00; // UART 1번 채널에 대해 register를 초기화한다.
0000dc e0e0      	LDI  R30,LOW(0)
0000dd 93e0 009b 	STS  155,R30
                 ; 0000 0016  UCSR1B=0x18;
0000df e1e8      	LDI  R30,LOW(24)
0000e0 93e0 009a 	STS  154,R30
                 ; 0000 0017  UCSR1C=0x06;
0000e2 e0e6      	LDI  R30,LOW(6)
0000e3 93e0 009d 	STS  157,R30
                 ; 0000 0018  UBRR1H=0x00;
0000e5 e0e0      	LDI  R30,LOW(0)
0000e6 93e0 0098 	STS  152,R30
                 ; 0000 0019  UBRR1L=0x67;
0000e8 e6e7      	LDI  R30,LOW(103)
0000e9 93e0 0099 	STS  153,R30
                 ; 0000 001A }
0000eb 9508      	RET
                 ;
                 ;//eeprom extern int StandardSensor[3], CenterStandardSensor[3];
                 ;
                 ;
                 ;void main(void)
                 ; 0000 0020 {
                 _main:
                 ; 0000 0021 int i;
                 ; 0000 0022 int mode;
                 ; 0000 0023 i=0;
                 ;	i -> R16,R17
                 ;	mode -> R18,R19
                +
0000ec e000     +LDI R16 , LOW ( 0 )
0000ed e010     +LDI R17 , HIGH ( 0 )
                 	__GETWRN 16,17,0
                 ; 0000 0024 mode=0;
                +
0000ee e020     +LDI R18 , LOW ( 0 )
0000ef e030     +LDI R19 , HIGH ( 0 )
                 	__GETWRN 18,19,0
                 ; 0000 0025 
                 ; 0000 0026      InitializeSensor();
0000f0 940e 0336 	CALL _InitializeSensor
                 ; 0000 0027      InitializeUART();
0000f2 dfe9      	RCALL _InitializeUART
                 ; 0000 0028        InitializeLED();
0000f3 d222      	RCALL _InitializeLED
                 ; 0000 0029      InitializeSwitch();
0000f4 940e 0773 	CALL _InitializeSwitch
                 ; 0000 002A      InitializeStepmotor();
0000f6 940e 04f8 	CALL _InitializeStepmotor
                 ; 0000 002B      LED_OFF(LED1 | LED2 | LED3 | LED4);
0000f8 940e 0915 	CALL SUBOPT_0x0
                 ; 0000 002C      #asm("sei")
0000fa 9478      	sei
                 ; 0000 002D while(1)                     //메뉴 시작
                 _0x3:
                 ; 0000 002E {
                 ; 0000 002F      if(SW1() == TRUE)
0000fb 940e 0782 	CALL _SW1
0000fd 30e1      	CPI  R30,LOW(0x1)
0000fe f571      	BRNE _0x6
                 ; 0000 0030      {
                 ; 0000 0031     mode++;
                +
0000ff 5f2f     +SUBI R18 , LOW ( - 1 )
000100 4f3f     +SBCI R19 , HIGH ( - 1 )
                 	__ADDWRN 18,19,1
                 ; 0000 0032     mode%=5;
000101 01d9      	MOVW R26,R18
000102 e0e5      	LDI  R30,LOW(5)
000103 e0f0      	LDI  R31,HIGH(5)
000104 940e 0c63 	CALL __MODW21
000106 019f      	MOVW R18,R30
                 ; 0000 0033     LED_OFF(LED1 | LED2 | LED3 | LED4);
000107 940e 0915 	CALL SUBOPT_0x0
                 ; 0000 0034     switch(mode)
000109 01f9      	MOVW R30,R18
                 ; 0000 0035     {
                 ; 0000 0036     case 0: LED_ON(LED1); break;
00010a 9730      	SBIW R30,0
00010b f419      	BRNE _0xA
00010c e1e0      	LDI  R30,LOW(16)
00010d e0f0      	LDI  R31,HIGH(16)
00010e c01b      	RJMP _0x48
                 ; 0000 0037     case 1: LED_ON(LED2); break;
                 _0xA:
00010f 30e1      	CPI  R30,LOW(0x1)
000110 e0a0      	LDI  R26,HIGH(0x1)
000111 07fa      	CPC  R31,R26
000112 f419      	BRNE _0xB
000113 e2e0      	LDI  R30,LOW(32)
000114 e0f0      	LDI  R31,HIGH(32)
000115 c014      	RJMP _0x48
                 ; 0000 0038     case 2: LED_ON(LED3); break;
                 _0xB:
000116 30e2      	CPI  R30,LOW(0x2)
000117 e0a0      	LDI  R26,HIGH(0x2)
000118 07fa      	CPC  R31,R26
000119 f419      	BRNE _0xC
00011a e4e0      	LDI  R30,LOW(64)
00011b e0f0      	LDI  R31,HIGH(64)
00011c c00d      	RJMP _0x48
                 ; 0000 0039     case 3: LED_ON(LED4); break;
                 _0xC:
00011d 30e3      	CPI  R30,LOW(0x3)
00011e e0a0      	LDI  R26,HIGH(0x3)
00011f 07fa      	CPC  R31,R26
000120 f419      	BRNE _0xD
000121 e8e0      	LDI  R30,LOW(128)
000122 e0f0      	LDI  R31,HIGH(128)
000123 c006      	RJMP _0x48
                 ; 0000 003A     case 4: LED_ON(LED1 | LED2 | LED3 | LED4); break;
                 _0xD:
000124 30e4      	CPI  R30,LOW(0x4)
000125 e0a0      	LDI  R26,HIGH(0x4)
000126 07fa      	CPC  R31,R26
000127 f429      	BRNE _0x9
000128 efe0      	LDI  R30,LOW(240)
000129 e0f0      	LDI  R31,HIGH(240)
                 _0x48:
00012a 93fa      	ST   -Y,R31
00012b 93ea      	ST   -Y,R30
00012c d1fe      	RCALL _LED_ON
                 ; 0000 003B     }
                 _0x9:
                 ; 0000 003C      }                     //각 모드에 맞는 LED켜기
                 ; 0000 003D      if(SW2() == TRUE)
                 _0x6:
00012d 940e 0789 	CALL _SW2
00012f 30e1      	CPI  R30,LOW(0x1)
000130 f011      	BREQ PC+3
000131 940c 0314 	JMP _0xF
                 ; 0000 003E      {
                 ; 0000 003F     switch(mode)
000133 01f9      	MOVW R30,R18
                 ; 0000 0040     {
                 ; 0000 0041     case 0:
000134 9730      	SBIW R30,0
000135 f4b9      	BRNE _0x13
                 ; 0000 0042          Direction(Quarter);
000136 940e 091b 	CALL SUBOPT_0x1
                 ; 0000 0043          A(50);
000138 e3e2      	LDI  R30,LOW(50)
000139 e0f0      	LDI  R31,HIGH(50)
00013a 940e 0921 	CALL SUBOPT_0x2
                 ; 0000 0044          Direction(Quarter);
                 ; 0000 0045          D(20);
00013c e1e4      	LDI  R30,LOW(20)
00013d e0f0      	LDI  R31,HIGH(20)
00013e 93fa      	ST   -Y,R31
00013f 93ea      	ST   -Y,R30
000140 940e 039f 	CALL _D
                 ; 0000 0046          Direction(Quarter);
000142 940e 091b 	CALL SUBOPT_0x1
                 ; 0000 0047          A(30);
000144 e1ee      	LDI  R30,LOW(30)
000145 e0f0      	LDI  R31,HIGH(30)
000146 940e 0921 	CALL SUBOPT_0x2
                 ; 0000 0048          Direction(Quarter);
                 ; 0000 0049 
                 ; 0000 004A          delay_ms(1000);
000148 eee8      	LDI  R30,LOW(1000)
000149 e0f3      	LDI  R31,HIGH(1000)
00014a 940e 0926 	CALL SUBOPT_0x3
                 ; 0000 004B     break;                  // 0번 모드 모터테스트
00014c c1c7      	RJMP _0x12
                 ; 0000 004C     case 1:
                 _0x13:
00014d 30e1      	CPI  R30,LOW(0x1)
00014e e0a0      	LDI  R26,HIGH(0x1)
00014f 07fa      	CPC  R31,R26
000150 f4a9      	BRNE _0x14
                 ; 0000 004D          printf("left : %d    center : %d    tight : %d\n",readSensor(LEFT_SENSOR),readSensor(FRONT_SENSOR),readSensor(RIGHT_SENSOR));
                +
000151 e9ee     +LDI R30 , LOW ( 2 * _0x0 + ( 0 ) )
000152 e0f0     +LDI R31 , HIGH ( 2 * _0x0 + ( 0 ) )
                 	__POINTW1FN _0x0,0
000153 93fa      	ST   -Y,R31
000154 93ea      	ST   -Y,R30
000155 940e 092a 	CALL SUBOPT_0x4
000157 940e 092e 	CALL SUBOPT_0x5
000159 940e 0933 	CALL SUBOPT_0x6
00015b 940e 092e 	CALL SUBOPT_0x5
00015d 940e 0937 	CALL SUBOPT_0x7
00015f 940e 092e 	CALL SUBOPT_0x5
000161 e08c      	LDI  R24,12
000162 940e 08d9 	CALL _printf
000164 962e      	ADIW R28,14
                 ; 0000 004E          break;                  //1번 모드 센서 테스트
000165 c1ae      	RJMP _0x12
                 ; 0000 004F     case 2:
                 _0x14:
000166 30e2      	CPI  R30,LOW(0x2)
000167 e0a0      	LDI  R26,HIGH(0x2)
000168 07fa      	CPC  R31,R26
000169 f011      	BREQ PC+3
00016a 940c 0295 	JMP _0x15
                 ; 0000 0050                LED_OFF(LED1 | LED2 | LED3 | LED4);
00016c 940e 0915 	CALL SUBOPT_0x0
                 ; 0000 0051          while(!SW2());
                 _0x16:
00016e 940e 0789 	CALL _SW2
000170 30e0      	CPI  R30,0
000171 f3e1      	BREQ _0x16
                 ; 0000 0052          StandardSensor[1] = readSensor(FRONT_SENSOR);
                +
000172 e0e2     +LDI R30 , LOW ( _StandardSensor + ( 2 ) )
000173 e0f0     +LDI R31 , HIGH ( _StandardSensor + ( 2 ) )
                 	__POINTW1MN _StandardSensor,2
000174 93ff      	PUSH R31
000175 93ef      	PUSH R30
000176 940e 0933 	CALL SUBOPT_0x6
000178 91af      	POP  R26
000179 91bf      	POP  R27
00017a 940e 0cb3 	CALL __EEPROMWRW
                 ; 0000 0053          LED_ON(LED1);
00017c 940e 093b 	CALL SUBOPT_0x8
                 ; 0000 0054          while(!SW2());
                 _0x19:
00017e 940e 0789 	CALL _SW2
000180 30e0      	CPI  R30,0
000181 f3e1      	BREQ _0x19
                 ; 0000 0055          StandardSensor[0] = readSensor(LEFT_SENSOR);    // 왼쪽 벽 정보
000182 940e 092a 	CALL SUBOPT_0x4
000184 940e 0941 	CALL SUBOPT_0x9
                 ; 0000 0056          LED_ON(LED2);
000186 e2e0      	LDI  R30,LOW(32)
000187 e0f0      	LDI  R31,HIGH(32)
000188 940e 0946 	CALL SUBOPT_0xA
                 ; 0000 0057          while(!SW2());
                 _0x1C:
00018a 940e 0789 	CALL _SW2
00018c 30e0      	CPI  R30,0
00018d f3e1      	BREQ _0x1C
                 ; 0000 0058          StandardSensor[2] = readSensor(RIGHT_SENSOR);    // 오른쪽 벽 정보
                +
00018e e0e4     +LDI R30 , LOW ( _StandardSensor + ( 4 ) )
00018f e0f0     +LDI R31 , HIGH ( _StandardSensor + ( 4 ) )
                 	__POINTW1MN _StandardSensor,4
000190 93ff      	PUSH R31
000191 93ef      	PUSH R30
000192 940e 0937 	CALL SUBOPT_0x7
000194 91af      	POP  R26
000195 91bf      	POP  R27
000196 940e 0cb3 	CALL __EEPROMWRW
                 ; 0000 0059          LED_ON(LED4);
000198 e8e0      	LDI  R30,LOW(128)
000199 e0f0      	LDI  R31,HIGH(128)
00019a 940e 0946 	CALL SUBOPT_0xA
                 ; 0000 005A          while(!SW2());
                 _0x1F:
00019c 940e 0789 	CALL _SW2
00019e 30e0      	CPI  R30,0
00019f f3e1      	BREQ _0x1F
                 ; 0000 005B          CenterStandardSensor[0] = readSensor(LEFT_SENSOR);    // 자세보정 왼쪽 벽 정보
0001a0 940e 092a 	CALL SUBOPT_0x4
0001a2 940e 094a 	CALL SUBOPT_0xB
                 ; 0000 005C          CenterStandardSensor[2]= readSensor(RIGHT_SENSOR);    // 자세보정 오른쪽 벽 정보
                +
0001a4 e0ea     +LDI R30 , LOW ( _CenterStandardSensor + ( 4 ) )
0001a5 e0f0     +LDI R31 , HIGH ( _CenterStandardSensor + ( 4 ) )
                 	__POINTW1MN _CenterStandardSensor,4
0001a6 93ff      	PUSH R31
0001a7 93ef      	PUSH R30
0001a8 940e 0937 	CALL SUBOPT_0x7
0001aa 91af      	POP  R26
0001ab 91bf      	POP  R27
0001ac 940e 0cb3 	CALL __EEPROMWRW
                 ; 0000 005D          CenterStandardSensor[1]= readSensor(FRONT_SENSOR);
                +
0001ae e0e8     +LDI R30 , LOW ( _CenterStandardSensor + ( 2 ) )
0001af e0f0     +LDI R31 , HIGH ( _CenterStandardSensor + ( 2 ) )
                 	__POINTW1MN _CenterStandardSensor,2
0001b0 93ff      	PUSH R31
0001b1 93ef      	PUSH R30
0001b2 940e 0933 	CALL SUBOPT_0x6
0001b4 91af      	POP  R26
0001b5 91bf      	POP  R27
0001b6 940e 094f 	CALL SUBOPT_0xC
                 ; 0000 005E          LED_ON(LED1 | LED2 | LED3 | LED4);
                 ; 0000 005F                LED_OFF(LED1 | LED2 | LED3 | LED4);
0001b8 940e 0915 	CALL SUBOPT_0x0
                 ; 0000 0060          LED_ON(LED3);
0001ba e4e0      	LDI  R30,LOW(64)
0001bb e0f0      	LDI  R31,HIGH(64)
0001bc 940e 0946 	CALL SUBOPT_0xA
                 ; 0000 0061          printf("left standard : %d    center stand : %d    right stand : %d    center standatd : %d  %d  %d",StandardSensor[0],StandardSensor[1],StandardSensor[2],CenterStandardSensor[0],CenterStandardSensor[1],CenterStandardSensor[2]);
0001be 940e 0954 	CALL SUBOPT_0xD
                 ; 0000 0062 
                 ; 0000 0063 //         Button.SW2 = FALSE;
                 ; 0000 0064 
                 ; 0000 0065           while(i<5)
                 _0x22:
                +
0001c0 3005     +CPI R16 , LOW ( 5 )
0001c1 e0e0     +LDI R30 , HIGH ( 5 )
0001c2 071e     +CPC R17 , R30
                 	__CPWRN 16,17,5
0001c3 f4d4      	BRGE _0x24
                 ; 0000 0066           {         // 전방 벽 정보의 평균값
                 ; 0000 0067              while(!SW2());
                 _0x25:
0001c4 940e 0789 	CALL _SW2
0001c6 30e0      	CPI  R30,0
0001c7 f3e1      	BREQ _0x25
                 ; 0000 0068              StandardSensor[1] = readSensor(FRONT_SENSOR) + StandardSensor[1]; // 전방 벽 정보
                +
0001c8 e0e2     +LDI R30 , LOW ( _StandardSensor + ( 2 ) )
0001c9 e0f0     +LDI R31 , HIGH ( _StandardSensor + ( 2 ) )
                 	__POINTW1MN _StandardSensor,2
0001ca 93ff      	PUSH R31
0001cb 93ef      	PUSH R30
0001cc 940e 0933 	CALL SUBOPT_0x6
0001ce 010f      	MOVW R0,R30
0001cf 940e 098d 	CALL SUBOPT_0xE
0001d1 0de0      	ADD  R30,R0
0001d2 1df1      	ADC  R31,R1
0001d3 91af      	POP  R26
0001d4 91bf      	POP  R27
0001d5 940e 094f 	CALL SUBOPT_0xC
                 ; 0000 0069              LED_ON(LED1 | LED2 | LED3 | LED4);
                 ; 0000 006A              delay_ms(100);
0001d7 940e 0992 	CALL SUBOPT_0xF
                 ; 0000 006B              LED_OFF(LED1 | LED2 | LED3 | LED4);
0001d9 940e 0915 	CALL SUBOPT_0x0
                 ; 0000 006C              i++;
                +
0001db 5f0f     +SUBI R16 , LOW ( - 1 )
0001dc 4f1f     +SBCI R17 , HIGH ( - 1 )
                 	__ADDWRN 16,17,1
                 ; 0000 006D           }
0001dd cfe2      	RJMP _0x22
                 _0x24:
                 ; 0000 006E          StandardSensor[1] = (int)(StandardSensor[1] / 6);
                +
0001de e062     +LDI R22 , LOW ( _StandardSensor + ( 2 ) )
0001df e070     +LDI R23 , HIGH ( _StandardSensor + ( 2 ) )
                 	__POINTWRMN 22,23,_StandardSensor,2
0001e0 940e 098d 	CALL SUBOPT_0xE
0001e2 940e 0995 	CALL SUBOPT_0x10
0001e4 940e 099b 	CALL SUBOPT_0x11
                 ; 0000 006F          i = 0;
                 ; 0000 0070          delay_ms(500);
                 ; 0000 0071          LED_ON(LED1);
0001e6 940e 093b 	CALL SUBOPT_0x8
                 ; 0000 0072 //         Button.SW2 = FALSE;
                 ; 0000 0073 
                 ; 0000 0074           while(i<5)
                 _0x28:
                +
0001e8 3005     +CPI R16 , LOW ( 5 )
0001e9 e0e0     +LDI R30 , HIGH ( 5 )
0001ea 071e     +CPC R17 , R30
                 	__CPWRN 16,17,5
0001eb f4b4      	BRGE _0x2A
                 ; 0000 0075           {         // 좌측 벽 정보의 평균값
                 ; 0000 0076              while(!SW2());
                 _0x2B:
0001ec 940e 0789 	CALL _SW2
0001ee 30e0      	CPI  R30,0
0001ef f3e1      	BREQ _0x2B
                 ; 0000 0077              StandardSensor[0] = readSensor(LEFT_SENSOR) + StandardSensor[0]; // 좌측 벽 정보
0001f0 940e 092a 	CALL SUBOPT_0x4
0001f2 010f      	MOVW R0,R30
0001f3 940e 09a3 	CALL SUBOPT_0x12
0001f5 0de0      	ADD  R30,R0
0001f6 1df1      	ADC  R31,R1
0001f7 940e 0941 	CALL SUBOPT_0x9
                 ; 0000 0078              LED_ON(LED1 | LED2 | LED3 | LED4);
0001f9 940e 09a8 	CALL SUBOPT_0x13
                 ; 0000 0079              delay_ms(100);
0001fb 940e 0992 	CALL SUBOPT_0xF
                 ; 0000 007A              LED_OFF(LED1 | LED2 | LED3 | LED4);
0001fd 940e 0915 	CALL SUBOPT_0x0
                 ; 0000 007B              i++;
                +
0001ff 5f0f     +SUBI R16 , LOW ( - 1 )
000200 4f1f     +SBCI R17 , HIGH ( - 1 )
                 	__ADDWRN 16,17,1
                 ; 0000 007C           }
000201 cfe6      	RJMP _0x28
                 _0x2A:
                 ; 0000 007D          StandardSensor[0] = (int)(StandardSensor[0] / 6);
000202 940e 09a3 	CALL SUBOPT_0x12
000204 940e 0995 	CALL SUBOPT_0x10
000206 940e 0941 	CALL SUBOPT_0x9
                 ; 0000 007E          i = 0;
                +
000208 e000     +LDI R16 , LOW ( 0 )
000209 e010     +LDI R17 , HIGH ( 0 )
                 	__GETWRN 16,17,0
                 ; 0000 007F          delay_ms(500);
00020a efe4      	LDI  R30,LOW(500)
00020b e0f1      	LDI  R31,HIGH(500)
00020c 940e 0926 	CALL SUBOPT_0x3
                 ; 0000 0080          LED_ON(LED1|LED2);
00020e e3e0      	LDI  R30,LOW(48)
00020f e0f0      	LDI  R31,HIGH(48)
000210 940e 0946 	CALL SUBOPT_0xA
                 ; 0000 0081 //         Button.SW2 = FALSE;
                 ; 0000 0082 
                 ; 0000 0083 
                 ; 0000 0084          while(i<5)
                 _0x2E:
                +
000212 3005     +CPI R16 , LOW ( 5 )
000213 e0e0     +LDI R30 , HIGH ( 5 )
000214 071e     +CPC R17 , R30
                 	__CPWRN 16,17,5
000215 f4d4      	BRGE _0x30
                 ; 0000 0085          {
                 ; 0000 0086          // 우측 벽 정보의 평균값
                 ; 0000 0087          while(!SW2());
                 _0x31:
000216 940e 0789 	CALL _SW2
000218 30e0      	CPI  R30,0
000219 f3e1      	BREQ _0x31
                 ; 0000 0088          StandardSensor[2] = readSensor(RIGHT_SENSOR) + StandardSensor[2]; // 우 벽 정보
                +
00021a e0e4     +LDI R30 , LOW ( _StandardSensor + ( 4 ) )
00021b e0f0     +LDI R31 , HIGH ( _StandardSensor + ( 4 ) )
                 	__POINTW1MN _StandardSensor,4
00021c 93ff      	PUSH R31
00021d 93ef      	PUSH R30
00021e 940e 0937 	CALL SUBOPT_0x7
000220 010f      	MOVW R0,R30
000221 940e 09ab 	CALL SUBOPT_0x14
000223 0de0      	ADD  R30,R0
000224 1df1      	ADC  R31,R1
000225 91af      	POP  R26
000226 91bf      	POP  R27
000227 940e 094f 	CALL SUBOPT_0xC
                 ; 0000 0089          LED_ON(LED1 | LED2 | LED3 | LED4);
                 ; 0000 008A          delay_ms(100);
000229 940e 0992 	CALL SUBOPT_0xF
                 ; 0000 008B          LED_OFF(LED1 | LED2 | LED3 | LED4);
00022b 940e 0915 	CALL SUBOPT_0x0
                 ; 0000 008C          i++;
                +
00022d 5f0f     +SUBI R16 , LOW ( - 1 )
00022e 4f1f     +SBCI R17 , HIGH ( - 1 )
                 	__ADDWRN 16,17,1
                 ; 0000 008D          }
00022f cfe2      	RJMP _0x2E
                 _0x30:
                 ; 0000 008E          StandardSensor[2] = (int)( StandardSensor[2] / 6);
                +
000230 e064     +LDI R22 , LOW ( _StandardSensor + ( 4 ) )
000231 e070     +LDI R23 , HIGH ( _StandardSensor + ( 4 ) )
                 	__POINTWRMN 22,23,_StandardSensor,4
000232 940e 09ab 	CALL SUBOPT_0x14
000234 940e 0995 	CALL SUBOPT_0x10
000236 940e 099b 	CALL SUBOPT_0x11
                 ; 0000 008F          i = 0;
                 ; 0000 0090          delay_ms(500);
                 ; 0000 0091          LED_ON(LED1 | LED2 | LED4);
000238 ebe0      	LDI  R30,LOW(176)
000239 e0f0      	LDI  R31,HIGH(176)
00023a 940e 0946 	CALL SUBOPT_0xA
                 ; 0000 0092 //         Button.SW2 = FALSE;
                 ; 0000 0093 
                 ; 0000 0094          while(i<5)
                 _0x34:
                +
00023c 3005     +CPI R16 , LOW ( 5 )
00023d e0e0     +LDI R30 , HIGH ( 5 )
00023e 071e     +CPC R17 , R30
                 	__CPWRN 16,17,5
00023f f5ac      	BRGE _0x36
                 ; 0000 0095          {
                 ; 0000 0096          // 좌우보정 정보의 평균값
                 ; 0000 0097          while(!SW2());
                 _0x37:
000240 940e 0789 	CALL _SW2
000242 30e0      	CPI  R30,0
000243 f3e1      	BREQ _0x37
                 ; 0000 0098          CenterStandardSensor[0] += readSensor(LEFT_SENSOR);
000244 940e 09b0 	CALL SUBOPT_0x15
000246 93ff      	PUSH R31
000247 93ef      	PUSH R30
000248 940e 092a 	CALL SUBOPT_0x4
00024a 91af      	POP  R26
00024b 91bf      	POP  R27
00024c 0fea      	ADD  R30,R26
00024d 1ffb      	ADC  R31,R27
00024e 940e 094a 	CALL SUBOPT_0xB
                 ; 0000 0099          CenterStandardSensor[1] += readSensor(FRONT_SENSOR); // 자세보정
000250 940e 09b5 	CALL SUBOPT_0x16
000252 93ff      	PUSH R31
000253 93ef      	PUSH R30
000254 940e 0933 	CALL SUBOPT_0x6
000256 91af      	POP  R26
000257 91bf      	POP  R27
000258 0fea      	ADD  R30,R26
000259 1ffb      	ADC  R31,R27
                +
00025a e0a8     +LDI R26 , LOW ( _CenterStandardSensor + ( 2 ) )
00025b e0b0     +LDI R27 , HIGH ( _CenterStandardSensor + ( 2 ) )
00025c 940e 0cb3+CALL __EEPROMWRW
                 	__PUTW1EN _CenterStandardSensor,2
                 ; 0000 009A          CenterStandardSensor[2] += readSensor(RIGHT_SENSOR); // 자세보정
00025e 940e 09ba 	CALL SUBOPT_0x17
000260 93ff      	PUSH R31
000261 93ef      	PUSH R30
000262 940e 0937 	CALL SUBOPT_0x7
000264 91af      	POP  R26
000265 91bf      	POP  R27
000266 0fea      	ADD  R30,R26
000267 1ffb      	ADC  R31,R27
                +
000268 e0aa     +LDI R26 , LOW ( _CenterStandardSensor + ( 4 ) )
000269 e0b0     +LDI R27 , HIGH ( _CenterStandardSensor + ( 4 ) )
00026a 940e 0cb3+CALL __EEPROMWRW
                 	__PUTW1EN _CenterStandardSensor,4
                 ; 0000 009B          LED_ON(LED1 | LED2 | LED3 | LED4);
00026c 940e 09a8 	CALL SUBOPT_0x13
                 ; 0000 009C          delay_ms(100);
00026e 940e 0992 	CALL SUBOPT_0xF
                 ; 0000 009D          LED_OFF(LED1 | LED2 | LED3 | LED4);
000270 940e 0915 	CALL SUBOPT_0x0
                 ; 0000 009E          i++;
                +
000272 5f0f     +SUBI R16 , LOW ( - 1 )
000273 4f1f     +SBCI R17 , HIGH ( - 1 )
                 	__ADDWRN 16,17,1
                 ; 0000 009F          }
000274 cfc7      	RJMP _0x34
                 _0x36:
                 ; 0000 00A0          CenterStandardSensor[0] = (int)(CenterStandardSensor[0]/6);
000275 940e 09b0 	CALL SUBOPT_0x15
000277 940e 0995 	CALL SUBOPT_0x10
000279 940e 094a 	CALL SUBOPT_0xB
                 ; 0000 00A1          CenterStandardSensor[1] = (int)(CenterStandardSensor[1]/6); // 자세보정
                +
00027b e068     +LDI R22 , LOW ( _CenterStandardSensor + ( 2 ) )
00027c e070     +LDI R23 , HIGH ( _CenterStandardSensor + ( 2 ) )
                 	__POINTWRMN 22,23,_CenterStandardSensor,2
00027d 940e 09b5 	CALL SUBOPT_0x16
00027f 940e 0995 	CALL SUBOPT_0x10
000281 01db      	MOVW R26,R22
000282 940e 0cb3 	CALL __EEPROMWRW
                 ; 0000 00A2          CenterStandardSensor[2] = (int)(CenterStandardSensor[2]/6); // 자세보정
                +
000284 e06a     +LDI R22 , LOW ( _CenterStandardSensor + ( 4 ) )
000285 e070     +LDI R23 , HIGH ( _CenterStandardSensor + ( 4 ) )
                 	__POINTWRMN 22,23,_CenterStandardSensor,4
000286 940e 09ba 	CALL SUBOPT_0x17
000288 940e 0995 	CALL SUBOPT_0x10
00028a 940e 099b 	CALL SUBOPT_0x11
                 ; 0000 00A3          i = 0;
                 ; 0000 00A4          delay_ms(500);
                 ; 0000 00A5          LED_ON(LED1 | LED2 | LED3 | LED4);
00028c 940e 09a8 	CALL SUBOPT_0x13
                 ; 0000 00A6          LED_OFF(LED1 | LED2 | LED3 | LED4);
00028e 940e 0915 	CALL SUBOPT_0x0
                 ; 0000 00A7          LED_ON(LED2 | LED3 | LED4);
000290 eee0      	LDI  R30,LOW(224)
000291 e0f0      	LDI  R31,HIGH(224)
000292 940e 0946 	CALL SUBOPT_0xA
                 ; 0000 00A8 //         Button.SW2 = FALSE;
                 ; 0000 00A9          break;               //2번모드 센서의 벽정보, 중앙보정정보 저장
000294 c07f      	RJMP _0x12
                 ; 0000 00AA 
                 ; 0000 00AB     case 3:
                 _0x15:
000295 30e3      	CPI  R30,LOW(0x3)
000296 e0a0      	LDI  R26,HIGH(0x3)
000297 07fa      	CPC  R31,R26
000298 f011      	BREQ PC+3
000299 940c 02f4 	JMP _0x3A
                 ; 0000 00AC          {
                 ; 0000 00AD         printf("left standard : %d    center stand : %d    right stand : %d    center standatd : %d  %d  %d",StandardSensor[0],StandardSensor[1],StandardSensor[2],CenterStandardSensor[0],CenterStandardSensor[1],CenterStandardSensor[2]);
00029b 940e 0954 	CALL SUBOPT_0xD
                 ; 0000 00AE 
                 ; 0000 00AF 
                 ; 0000 00B0                while (1)
                 _0x3B:
                 ; 0000 00B1                {
                 ; 0000 00B2 //                         delay_ms(500);
                 ; 0000 00B3                    if(readSensor(LEFT_SENSOR) < StandardSensor[0])
00029d 940e 092a 	CALL SUBOPT_0x4
00029f 010f      	MOVW R0,R30
0002a0 940e 09a3 	CALL SUBOPT_0x12
0002a2 160e      	CP   R0,R30
0002a3 061f      	CPC  R1,R31
0002a4 f448      	BRSH _0x3E
                 ; 0000 00B4                     {
                 ; 0000 00B5 //                         Direction(Quarter);
                 ; 0000 00B6 //                         Direction(Quarter);
                 ; 0000 00B7 
                 ; 0000 00B8                        //  Direction(HexaStep);
                 ; 0000 00B9 
                 ; 0000 00BA                          Direction(SmoothL);
0002a5 940e 09bf 	CALL SUBOPT_0x18
                 ; 0000 00BB                          Direction(SmoothL);
0002a7 940e 09bf 	CALL SUBOPT_0x18
                 ; 0000 00BC                     delay_ms(500);
0002a9 efe4      	LDI  R30,LOW(500)
0002aa e0f1      	LDI  R31,HIGH(500)
0002ab 940e 0926 	CALL SUBOPT_0x3
                 ; 0000 00BD                          Direction(Quarter);
0002ad c03d      	RJMP _0x49
                 ; 0000 00BE                          Direction(Quarter);
                 ; 0000 00BF                     }
                 ; 0000 00C0                     else if(readSensor(FRONT_SENSOR) > StandardSensor[1])
                 _0x3E:
0002ae 940e 0933 	CALL SUBOPT_0x6
0002b0 010f      	MOVW R0,R30
0002b1 940e 098d 	CALL SUBOPT_0xE
0002b3 15e0      	CP   R30,R0
0002b4 05f1      	CPC  R31,R1
0002b5 f550      	BRSH _0x40
                 ; 0000 00C1                     {
                 ; 0000 00C2                          if(readSensor(RIGHT_SENSOR) < StandardSensor[2])
0002b6 940e 0937 	CALL SUBOPT_0x7
0002b8 010f      	MOVW R0,R30
0002b9 940e 09ab 	CALL SUBOPT_0x14
0002bb 160e      	CP   R0,R30
0002bc 061f      	CPC  R1,R31
0002bd f438      	BRSH _0x41
                 ; 0000 00C3                          {
                 ; 0000 00C4 //                             Direction(Quarter);
                 ; 0000 00C5 //                             Direction(Quarter);
                 ; 0000 00C6                           //   Direction(HexaStep);
                 ; 0000 00C7 
                 ; 0000 00C8                              Direction(SmoothR);
0002be 940e 09c5 	CALL SUBOPT_0x19
                 ; 0000 00C9                              Direction(SmoothR);
0002c0 940e 09c5 	CALL SUBOPT_0x19
                 ; 0000 00CA                          delay_ms(500);
0002c2 efe4      	LDI  R30,LOW(500)
0002c3 e0f1      	LDI  R31,HIGH(500)
0002c4 c012      	RJMP _0x4A
                 ; 0000 00CB                              Direction(Quarter);
                 ; 0000 00CC                              Direction(Quarter);
                 ; 0000 00CD                           }
                 ; 0000 00CE                          else
                 _0x41:
                 ; 0000 00CF                          {
                 ; 0000 00D0                               LED_ON(LED3);
0002c5 e4e0      	LDI  R30,LOW(64)
0002c6 e0f0      	LDI  R31,HIGH(64)
0002c7 940e 0946 	CALL SUBOPT_0xA
                 ; 0000 00D1                               LED_ON(LED4);
0002c9 e8e0      	LDI  R30,LOW(128)
0002ca e0f0      	LDI  R31,HIGH(128)
0002cb 940e 0946 	CALL SUBOPT_0xA
                 ; 0000 00D2                               Direction(Quarter);
0002cd 940e 091b 	CALL SUBOPT_0x1
                 ; 0000 00D3                               Direction(Quarter);
0002cf 940e 091b 	CALL SUBOPT_0x1
                 ; 0000 00D4 
                 ; 0000 00D5                               Direction(LEFT);
0002d1 940e 09cb 	CALL SUBOPT_0x1A
                 ; 0000 00D6                               Direction(LEFT);
0002d3 940e 09cb 	CALL SUBOPT_0x1A
                 ; 0000 00D7                               delay_ms(100);
0002d5 e6e4      	LDI  R30,LOW(100)
0002d6 e0f0      	LDI  R31,HIGH(100)
                 _0x4A:
0002d7 93fa      	ST   -Y,R31
0002d8 93ea      	ST   -Y,R30
0002d9 940e 0ae1 	CALL _delay_ms
                 ; 0000 00D8 
                 ; 0000 00D9                               Direction(Quarter);
0002db 940e 091b 	CALL SUBOPT_0x1
                 ; 0000 00DA                               Direction(Quarter);
0002dd 940e 091b 	CALL SUBOPT_0x1
                 ; 0000 00DB                         }
                 ; 0000 00DC                     }
                 ; 0000 00DD                     else
0002df c013      	RJMP _0x43
                 _0x40:
                 ; 0000 00DE                     {
                 ; 0000 00DF                          if(readSensor(FRONT_SENSOR)< StandardSensor[1])
0002e0 940e 0933 	CALL SUBOPT_0x6
0002e2 010f      	MOVW R0,R30
                +
0002e3 e0a2     +LDI R26 , LOW ( _StandardSensor + ( 2 ) )
0002e4 e0b0     +LDI R27 , HIGH ( _StandardSensor + ( 2 ) )
                 	__POINTW2MN _StandardSensor,2
                 ; 0000 00E0                          {
                 ; 0000 00E1                     //   A(10);
                 ; 0000 00E2                     //     Direction(Quarter);
                 ; 0000 00E3                          Direction(Quarter);
                 ; 0000 00E4                          Direction(Quarter);
                 ; 0000 00E5                          Direction(Quarter);
                 ; 0000 00E6                          }
                 ; 0000 00E7                          else
                 ; 0000 00E8                          {
                 ; 0000 00E9                      //    D(30);
                 ; 0000 00EA                      //    Direction(Quarter);
                 ; 0000 00EB                          Direction(Quarter);
                 _0x4B:
0002e5 e0ee      	LDI  R30,LOW(14)
0002e6 e0f0      	LDI  R31,HIGH(14)
0002e7 93fa      	ST   -Y,R31
0002e8 93ea      	ST   -Y,R30
0002e9 940e 0585 	CALL _Direction
                 ; 0000 00EC                          Direction(Quarter);
                 _0x49:
0002eb e0ee      	LDI  R30,LOW(14)
0002ec e0f0      	LDI  R31,HIGH(14)
0002ed 93fa      	ST   -Y,R31
0002ee 93ea      	ST   -Y,R30
0002ef 940e 0585 	CALL _Direction
                 ; 0000 00ED                          Direction(Quarter);
0002f1 940e 091b 	CALL SUBOPT_0x1
                 ; 0000 00EE                          }
                 ; 0000 00EF                     }
                 _0x43:
                 ; 0000 00F0                }
0002f3 cfa9      	RJMP _0x3B
                 ; 0000 00F1           }
                 ; 0000 00F2          break;               //3번 모드 좌수법
                 ; 0000 00F3          case 4:     {
                 _0x3A:
0002f4 30e4      	CPI  R30,LOW(0x4)
0002f5 e0a0      	LDI  R26,HIGH(0x4)
0002f6 07fa      	CPC  R31,R26
0002f7 f4e1      	BRNE _0x12
                 ; 0000 00F4                   Direction(Quarter);
0002f8 940e 091b 	CALL SUBOPT_0x1
                 ; 0000 00F5                   Direction(Quarter);
0002fa 940e 091b 	CALL SUBOPT_0x1
                 ; 0000 00F6                   Direction(Quarter);
0002fc 940e 091b 	CALL SUBOPT_0x1
                 ; 0000 00F7                   Direction(Quarter);
0002fe 940e 091b 	CALL SUBOPT_0x1
                 ; 0000 00F8 
                 ; 0000 00F9                   Direction(SmoothR);
000300 940e 09c5 	CALL SUBOPT_0x19
                 ; 0000 00FA                   Direction(SmoothR);
000302 940e 09c5 	CALL SUBOPT_0x19
                 ; 0000 00FB                   delay_ms(2000);
000304 ede0      	LDI  R30,LOW(2000)
000305 e0f7      	LDI  R31,HIGH(2000)
000306 940e 0926 	CALL SUBOPT_0x3
                 ; 0000 00FC 
                 ; 0000 00FD                   Direction(Quarter);
000308 940e 091b 	CALL SUBOPT_0x1
                 ; 0000 00FE                   Direction(Quarter);
00030a 940e 091b 	CALL SUBOPT_0x1
                 ; 0000 00FF                   Direction(Quarter);
00030c 940e 091b 	CALL SUBOPT_0x1
                 ; 0000 0100                   Direction(Quarter);
00030e 940e 091b 	CALL SUBOPT_0x1
                 ; 0000 0101                   Direction(SmoothL);
000310 940e 09bf 	CALL SUBOPT_0x18
                 ; 0000 0102                   Direction(SmoothL);
000312 940e 09bf 	CALL SUBOPT_0x18
                 ; 0000 0103 
                 ; 0000 0104          }break;         //4번모드 smooth turn 보정을 위한 테스트
                 ; 0000 0105     }
                 _0x12:
                 ; 0000 0106    }
                 ; 0000 0107 
                 ; 0000 0108 }     ;
                 _0xF:
000314 cde6      	RJMP _0x3
                 ; 0000 0109 
                 ; 0000 010A }
                 _0x47:
000315 cfff      	RJMP _0x47
                 ;#include <mega128.h>
                 	#ifndef __SLEEP_DEFINED__
                 	#endif
                 ;#include <delay.h>
                 ;#include "LED.h"
                 ;
                 ;void InitializeLED(void)
                 ; 0001 0006 {
                 
                 	.CSEG
                 _InitializeLED:
                 ; 0001 0007      // LED - PORTF 4,5,6,7
                 ; 0001 0008      PORTF &= 0x0F;
000316 91e0 0062 	LDS  R30,98
000318 70ef      	ANDI R30,LOW(0xF)
000319 93e0 0062 	STS  98,R30
                 ; 0001 0009      DDRF |= 0xF0;
00031b 91e0 0061 	LDS  R30,97
00031d 6fe0      	ORI  R30,LOW(0xF0)
00031e 93e0 0061 	STS  97,R30
                 ; 0001 000A }
000320 9508      	RET
                 ;
                 ;void LED_OFF(int nLED)
                 ; 0001 000D {
                 _LED_OFF:
                 ; 0001 000E      PORTF |= nLED;
                 ;	nLED -> Y+0
000321 e6a2      	LDI  R26,LOW(98)
000322 e0b0      	LDI  R27,HIGH(98)
000323 2e0a      	MOV  R0,R26
000324 91ec      	LD   R30,X
000325 81a8      	LD   R26,Y
000326 2bea      	OR   R30,R26
000327 2da0      	MOV  R26,R0
000328 93ec      	ST   X,R30
                 ; 0001 000F }
000329 940c 03c9 	JMP  _0x20A0005
                 ;
                 ;void LED_ON(int nLED)
                 ; 0001 0012 {
                 _LED_ON:
                 ; 0001 0013      PORTF &= ~(nLED);
                 ;	nLED -> Y+0
00032b e6a2      	LDI  R26,LOW(98)
00032c e0b0      	LDI  R27,HIGH(98)
00032d 2e0a      	MOV  R0,R26
00032e 91ac      	LD   R26,X
00032f 81e8      	LD   R30,Y
000330 95e0      	COM  R30
000331 23ea      	AND  R30,R26
000332 2da0      	MOV  R26,R0
000333 93ec      	ST   X,R30
                 ; 0001 0014 }
000334 940c 03c9 	JMP  _0x20A0005
                 ;#include <mega128.h>
                 	#ifndef __SLEEP_DEFINED__
                 	#endif
                 ;#include <delay.h>
                 ;// Standard Input/Output functions
                 ;#include <stdio.h>
                 ;#include "Sensor.h"
                 ;#include "StepMotor.h"  // Sensor의 값을 이용하여 모터를 제어하기 때문에 모터 헤더파일이 들어가야 한다.
                 ;
                 ;eeprom int StandardSensor[3], CenterStandardSensor[3];
                 ;
                 ;void InitializeSensor(void)
                 ; 0002 000B {
                 
                 	.CSEG
                 _InitializeSensor:
                 ; 0002 000C      // 발광센서 PORTB 5,6,7
                 ; 0002 000D      PORTB &= 0x1f;
000336 b3e8      	IN   R30,0x18
000337 71ef      	ANDI R30,LOW(0x1F)
000338 bbe8      	OUT  0x18,R30
                 ; 0002 000E      DDRB |= 0xe0;
000339 b3e7      	IN   R30,0x17
00033a 6ee0      	ORI  R30,LOW(0xE0)
00033b bbe7      	OUT  0x17,R30
                 ; 0002 000F      // 수광센서 PORTF 0,1,2
                 ; 0002 0010      PORTF &= 0xf8;
00033c 91e0 0062 	LDS  R30,98
00033e 7fe8      	ANDI R30,LOW(0xF8)
00033f 93e0 0062 	STS  98,R30
                 ; 0002 0011      DDRF &= 0xf8;
000341 91e0 0061 	LDS  R30,97
000343 7fe8      	ANDI R30,LOW(0xF8)
000344 93e0 0061 	STS  97,R30
                 ; 0002 0012 
                 ; 0002 0013 // ADC initialization
                 ; 0002 0014 // ADC Clock frequency: 125.000 kHz
                 ; 0002 0015 // ADC Voltage Reference: AVCC pin
                 ; 0002 0016      ADMUX=ADC_VREF_TYPE;
000346 e4e0      	LDI  R30,LOW(64)
000347 b9e7      	OUT  0x7,R30
                 ; 0002 0017      ADCSRA=0x87;
000348 e8e7      	LDI  R30,LOW(135)
000349 b9e6      	OUT  0x6,R30
                 ; 0002 0018 }
00034a 9508      	RET
                 ;
                 ;unsigned int read_adc(unsigned char adc_input)
                 ; 0002 001B {
                 _read_adc:
                 ; 0002 001C     ADMUX=adc_input | (ADC_VREF_TYPE & 0xff);
                 ;	adc_input -> Y+0
00034b 81e8      	LD   R30,Y
00034c 64e0      	ORI  R30,0x40
00034d b9e7      	OUT  0x7,R30
                 ; 0002 001D     // Delay needed for the stabilization of the ADC input voltage
                 ; 0002 001E     delay_us(10);
                +
00034e e385     +LDI R24 , LOW ( 53 )
                +__DELAY_USB_LOOP :
00034f 958a     +DEC R24
000350 f7f1     +BRNE __DELAY_USB_LOOP
                 	__DELAY_USB 53
                 ; 0002 001F     // Start the AD conversion
                 ; 0002 0020     ADCSRA|=0x40;
000351 9a36      	SBI  0x6,6
                 ; 0002 0021     // Wait for the AD conversion to complete
                 ; 0002 0022     while ((ADCSRA & 0x10)==0);
                 _0x40003:
000352 9b34      	SBIS 0x6,4
000353 cffe      	RJMP _0x40003
                 ; 0002 0023     ADCSRA|=0x10;
000354 9a34      	SBI  0x6,4
                 ; 0002 0024     return ADCW;
000355 b1e4      	IN   R30,0x4
000356 b1f5      	IN   R31,0x4+1
000357 940c 0796 	JMP  _0x20A0002
                 ; 0002 0025 }
                 ;
                 ;unsigned int readSensor(char si)
                 ; 0002 0028 {
                 _readSensor:
                 ; 0002 0029      unsigned int ret;
                 ; 0002 002A 
                 ; 0002 002B      switch(si)
000359 931a      	ST   -Y,R17
00035a 930a      	ST   -Y,R16
                 ;	si -> Y+2
                 ;	ret -> R16,R17
00035b 81ea      	LDD  R30,Y+2
00035c e0f0      	LDI  R31,0
                 ; 0002 002C      {
                 ; 0002 002D           case FRONT_SENSOR:
00035d 9730      	SBIW R30,0
00035e f429      	BRNE _0x40009
                 ; 0002 002E                PORTB.5=1;
00035f 9ac5      	SBI  0x18,5
                 ; 0002 002F                delay_us(50);
000360 940e 09d1 	CALL SUBOPT_0x1B
                 ; 0002 0030                ret=read_adc(si);
                 ; 0002 0031                PORTB.5=0;
000362 98c5      	CBI  0x18,5
                 ; 0002 0032                break;
000363 c011      	RJMP _0x40008
                 ; 0002 0033           case LEFT_SENSOR:
                 _0x40009:
000364 30e1      	CPI  R30,LOW(0x1)
000365 e0a0      	LDI  R26,HIGH(0x1)
000366 07fa      	CPC  R31,R26
000367 f429      	BRNE _0x4000E
                 ; 0002 0034                PORTB.6=1;
000368 9ac6      	SBI  0x18,6
                 ; 0002 0035                delay_us(50);
000369 940e 09d1 	CALL SUBOPT_0x1B
                 ; 0002 0036                ret=read_adc(si);
                 ; 0002 0037                PORTB.6=0;
00036b 98c6      	CBI  0x18,6
                 ; 0002 0038                break;
00036c c008      	RJMP _0x40008
                 ; 0002 0039           case RIGHT_SENSOR:
                 _0x4000E:
00036d 30e2      	CPI  R30,LOW(0x2)
00036e e0a0      	LDI  R26,HIGH(0x2)
00036f 07fa      	CPC  R31,R26
000370 f421      	BRNE _0x40008
                 ; 0002 003A                PORTB.7=1;
000371 9ac7      	SBI  0x18,7
                 ; 0002 003B                delay_us(50);
000372 940e 09d1 	CALL SUBOPT_0x1B
                 ; 0002 003C                ret=read_adc(si);
                 ; 0002 003D                PORTB.7=0;
000374 98c7      	CBI  0x18,7
                 ; 0002 003E                break;
                 ; 0002 003F      }
                 _0x40008:
                 ; 0002 0040      return ret;
000375 01f8      	MOVW R30,R16
000376 8119      	LDD  R17,Y+1
000377 8108      	LDD  R16,Y+0
000378 940c 07a2 	JMP  _0x20A0001
                 ; 0002 0041 }
                 ;#include <mega128.h>
                 	#ifndef __SLEEP_DEFINED__
                 	#endif
                 ;#include <math.h>
                 ;#include "StepMotor.h"
                 ;#include "Sensor.h"
                 ;#include <delay.h>
                 ;
                 ;// Declare your global variables here
                 ;     char rotateR[8] = {0b1001,0b0001,0b0101,0b0100,0b0110,0b0010,0b1010,0b1000};
                 
                 	.DSEG
                 ;     char rotateL[8] = {0b1001,0b1000,0b1010,0b0010,0b0110,0b0100,0b0101,0b0001};
                 ;
                 ;     int LeftstepCount;
                 ;     int RightstepCount;        // rotateR과 rotateL의 각각 스텝이 모터에 순서대로 입력되도록 Count
                 ;     unsigned int VelocityLeftmotorTCNT1;
                 ;     unsigned int VelocityRightmotorTCNT3;    // 왼쪽과 오른쪽 모터의 TCNT 속도
                 ;     unsigned char direction_control;        // 인터럽트 루틴에 방향정보를 전달하기 위한 전역변수
                 ;
                 ;     unsigned int vel_counter_high_L, vel_counter_high_R, vel_counter_high; // 마우스 보정을 위한 변수 설정.
                 ;
                 ;     struct {
                 ;          int nStep4perBlock;            // 한 블록 이동시 필요한 모터회전 스텝 정보
                 ;          int nStep4Turn90forRight;            // 90도 턴 이동시 필요한 모터회전 스텝 정보
                 ;          int nStep4Turn90forLeft;  // LEFT가 90도 회전을 하기 위한 step 수
                 ;          int nStep4Turn90_smooth;
                 ;     } Information;
                 ;     struct {
                 ;          char LmotorRun;            // 왼쪽 모터가 회전했는지에 대한 Flag
                 ;          char RmotorRun;            // 오른쪽 모터가 회전했는지에 대한 Flag
                 ;     } Flag;
                 ;
                 ;    void A(int speed)
                 ; 0003 001F     {
                 
                 	.CSEG
                 _A:
                 ; 0003 0020         VelocityLeftmotorTCNT1=65400;
                 ;	speed -> Y+0
00037a 940e 09db 	CALL SUBOPT_0x1C
                 ; 0003 0021         VelocityRightmotorTCNT3=65400;
                 ; 0003 0022         VelocityLeftmotorTCNT1+=speed;
00037c 81e8      	LD   R30,Y
00037d 81f9      	LDD  R31,Y+1
00037e 940e 09e6 	CALL SUBOPT_0x1D
000380 0fea      	ADD  R30,R26
000381 1ffb      	ADC  R31,R27
000382 940e 09eb 	CALL SUBOPT_0x1E
                 ; 0003 0023         VelocityRightmotorTCNT3+=speed;
000384 81e8      	LD   R30,Y
000385 81f9      	LDD  R31,Y+1
000386 940e 09f0 	CALL SUBOPT_0x1F
000388 0fea      	ADD  R30,R26
000389 1ffb      	ADC  R31,R27
00038a 940e 09f5 	CALL SUBOPT_0x20
                 ; 0003 0024 
                 ; 0003 0025         if(VelocityLeftmotorTCNT1 > 65535)
00038c 940e 09e6 	CALL SUBOPT_0x1D
00038e efef      	LDI  R30,LOW(65535)
00038f efff      	LDI  R31,HIGH(65535)
000390 17ea      	CP   R30,R26
000391 07fb      	CPC  R31,R27
000392 f410      	BRSH _0x60005
                 ; 0003 0026         {
                 ; 0003 0027             VelocityLeftmotorTCNT1 = 65535;
000393 940e 09eb 	CALL SUBOPT_0x1E
                 ; 0003 0028         }
                 ; 0003 0029 
                 ; 0003 002A         if(VelocityRightmotorTCNT3 > 65535)
                 _0x60005:
000395 940e 09f0 	CALL SUBOPT_0x1F
000397 efef      	LDI  R30,LOW(65535)
000398 efff      	LDI  R31,HIGH(65535)
000399 17ea      	CP   R30,R26
00039a 07fb      	CPC  R31,R27
00039b f410      	BRSH _0x60006
                 ; 0003 002B         {
                 ; 0003 002C             VelocityRightmotorTCNT3 = 65535;
00039c 940e 09f5 	CALL SUBOPT_0x20
                 ; 0003 002D         }
                 ; 0003 002E 
                 ; 0003 002F     }
                 _0x60006:
00039e c02a      	RJMP _0x20A0005
                 ;
                 ;    void D(int speed2)
                 ; 0003 0032     {
                 _D:
                 ; 0003 0033         VelocityLeftmotorTCNT1=65400;
                 ;	speed2 -> Y+0
00039f 940e 09db 	CALL SUBOPT_0x1C
                 ; 0003 0034         VelocityRightmotorTCNT3=65400;
                 ; 0003 0035         VelocityLeftmotorTCNT1-=speed2;
0003a1 81a8      	LD   R26,Y
0003a2 81b9      	LDD  R27,Y+1
0003a3 91e0 0500 	LDS  R30,_VelocityLeftmotorTCNT1
0003a5 91f0 0501 	LDS  R31,_VelocityLeftmotorTCNT1+1
0003a7 1bea      	SUB  R30,R26
0003a8 0bfb      	SBC  R31,R27
0003a9 940e 09eb 	CALL SUBOPT_0x1E
                 ; 0003 0036         VelocityRightmotorTCNT3-=speed2;
0003ab 81a8      	LD   R26,Y
0003ac 81b9      	LDD  R27,Y+1
0003ad 91e0 0502 	LDS  R30,_VelocityRightmotorTCNT3
0003af 91f0 0503 	LDS  R31,_VelocityRightmotorTCNT3+1
0003b1 1bea      	SUB  R30,R26
0003b2 0bfb      	SBC  R31,R27
0003b3 940e 09f5 	CALL SUBOPT_0x20
                 ; 0003 0037 
                 ; 0003 0038         if(VelocityLeftmotorTCNT1 < 65200)
0003b5 940e 09e6 	CALL SUBOPT_0x1D
0003b7 3ba0      	CPI  R26,LOW(0xFEB0)
0003b8 efee      	LDI  R30,HIGH(0xFEB0)
0003b9 07be      	CPC  R27,R30
0003ba f420      	BRSH _0x60007
                 ; 0003 0039         {
                 ; 0003 003A             VelocityLeftmotorTCNT1 = 65200;
0003bb ebe0      	LDI  R30,LOW(65200)
0003bc effe      	LDI  R31,HIGH(65200)
0003bd 940e 09eb 	CALL SUBOPT_0x1E
                 ; 0003 003B         }
                 ; 0003 003C 
                 ; 0003 003D         if(VelocityRightmotorTCNT3 < 65200)
                 _0x60007:
0003bf 940e 09f0 	CALL SUBOPT_0x1F
0003c1 3ba0      	CPI  R26,LOW(0xFEB0)
0003c2 efee      	LDI  R30,HIGH(0xFEB0)
0003c3 07be      	CPC  R27,R30
0003c4 f420      	BRSH _0x60008
                 ; 0003 003E         {
                 ; 0003 003F             VelocityRightmotorTCNT3 = 65200;
0003c5 ebe0      	LDI  R30,LOW(65200)
0003c6 effe      	LDI  R31,HIGH(65200)
0003c7 940e 09f5 	CALL SUBOPT_0x20
                 ; 0003 0040         }
                 ; 0003 0041     }
                 _0x60008:
                 _0x20A0005:
0003c9 9622      	ADIW R28,2
0003ca 9508      	RET
                 ;
                 ;int adjustmouse(void)
                 ; 0003 0044 {
                 _adjustmouse:
                 ; 0003 0045     int adjLeftSensor,adjRightSensor;
                 ; 0003 0046     int adjflagcnt = 0;
                 ; 0003 0047 
                 ; 0003 0048     adjLeftSensor = readSensor(LEFT_SENSOR);
0003cb 940e 09fa 	CALL SUBOPT_0x21
                 ;	adjLeftSensor -> R16,R17
                 ;	adjRightSensor -> R18,R19
                 ;	adjflagcnt -> R20,R21
0003cd 018f      	MOVW R16,R30
                 ; 0003 0049     adjRightSensor = readSensor(RIGHT_SENSOR);
0003ce 940e 0937 	CALL SUBOPT_0x7
0003d0 940e 09ff 	CALL SUBOPT_0x22
                 ; 0003 004A 
                 ; 0003 004B     vel_counter_high_L = VelocityLeftmotorTCNT1;	        //현재 바퀴속도값을 변수 counter에 각각 저장(65200 ~ 65535)
                 ; 0003 004C     vel_counter_high_R = VelocityRightmotorTCNT3;
                 ; 0003 004D 
                 ; 0003 004E     if((adjRightSensor < StandardSensor[2])             // 오른쪽 벽이 존재하지 않을 경우
                 ; 0003 004F     || (adjLeftSensor < StandardSensor[1]))             // 왼쪽 벽이 존재하지 않을 경우
0003d2 940e 09ab 	CALL SUBOPT_0x14
0003d4 172e      	CP   R18,R30
0003d5 073f      	CPC  R19,R31
0003d6 f02c      	BRLT _0x6000A
0003d7 940e 098d 	CALL SUBOPT_0xE
0003d9 170e      	CP   R16,R30
0003da 071f      	CPC  R17,R31
0003db f43c      	BRGE _0x60009
                 _0x6000A:
                 ; 0003 0050     {
                 ; 0003 0051         vel_counter_high_L = vel_counter_high;          // 속도를 같게하고 리턴
0003dc 940e 0a09 	CALL SUBOPT_0x23
                 ; 0003 0052         vel_counter_high_R = vel_counter_high;
                 ; 0003 0053         return 0;
0003de e0e0      	LDI  R30,LOW(0)
0003df e0f0      	LDI  R31,HIGH(0)
0003e0 940e 0cd3 	CALL __LOADLOCR6
0003e2 c2ca      	RJMP _0x20A0004
                 ; 0003 0054     }
                 ; 0003 0055 
                 ; 0003 0056     if(adjRightSensor < CenterStandardSensor[2])            // 오른쪽 벽이 멀 경우
                 _0x60009:
0003e3 940e 09ba 	CALL SUBOPT_0x17
0003e5 172e      	CP   R18,R30
0003e6 073f      	CPC  R19,R31
0003e7 f4ec      	BRGE _0x6000C
                 ; 0003 0057     {
                 ; 0003 0058         vel_counter_high_L+=2.5;
0003e8 01f5      	MOVW R30,R10
0003e9 940e 0a12 	CALL SUBOPT_0x24
0003eb 940e 0a17 	CALL SUBOPT_0x25
0003ed 015f      	MOVW R10,R30
                 ; 0003 0059         vel_counter_high_R-=2.5;
0003ee 01f6      	MOVW R30,R12
0003ef 940e 0a1e 	CALL SUBOPT_0x26
0003f1 940e 0a2a 	CALL SUBOPT_0x27
                 ; 0003 005A         if(vel_counter_high_L > vel_counter_high+15)
0003f3 15ea      	CP   R30,R10
0003f4 05fb      	CPC  R31,R11
0003f5 f420      	BRSH _0x6000D
                 ; 0003 005B         {
                 ; 0003 005C             vel_counter_high_L = vel_counter_high+15;
0003f6 940e 0a31 	CALL SUBOPT_0x28
0003f8 963f      	ADIW R30,15
0003f9 015f      	MOVW R10,R30
                 ; 0003 005D         }
                 ; 0003 005E 
                 ; 0003 005F         if(vel_counter_high_R < (vel_counter_high - 15))
                 _0x6000D:
0003fa 940e 0a31 	CALL SUBOPT_0x28
0003fc 973f      	SBIW R30,15
0003fd 16ce      	CP   R12,R30
0003fe 06df      	CPC  R13,R31
0003ff f420      	BRSH _0x6000E
                 ; 0003 0060         {
                 ; 0003 0061             vel_counter_high_R = (vel_counter_high - 15);
000400 940e 0a31 	CALL SUBOPT_0x28
000402 973f      	SBIW R30,15
000403 016f      	MOVW R12,R30
                 ; 0003 0062         }
                 ; 0003 0063     }
                 _0x6000E:
                 ; 0003 0064     else
000404 c002      	RJMP _0x6000F
                 _0x6000C:
                 ; 0003 0065     adjflagcnt++;
                +
000405 5f4f     +SUBI R20 , LOW ( - 1 )
000406 4f5f     +SBCI R21 , HIGH ( - 1 )
                 	__ADDWRN 20,21,1
                 ; 0003 0066 
                 ; 0003 0067     if(adjLeftSensor < CenterStandardSensor[1])    // 왼쪽 벽이 멀 경우
                 _0x6000F:
000407 940e 09b5 	CALL SUBOPT_0x16
000409 170e      	CP   R16,R30
00040a 071f      	CPC  R17,R31
00040b f4ec      	BRGE _0x60010
                 ; 0003 0068     {
                 ; 0003 0069         vel_counter_high_L-=2.5;
00040c 01f5      	MOVW R30,R10
00040d 940e 0a1e 	CALL SUBOPT_0x26
00040f 015f      	MOVW R10,R30
                 ; 0003 006A         vel_counter_high_R+=2.5;
000410 01f6      	MOVW R30,R12
000411 940e 0a12 	CALL SUBOPT_0x24
000413 940e 0a17 	CALL SUBOPT_0x25
000415 940e 0a2a 	CALL SUBOPT_0x27
                 ; 0003 006B         if(vel_counter_high_R > vel_counter_high+15)
000417 15ec      	CP   R30,R12
000418 05fd      	CPC  R31,R13
000419 f420      	BRSH _0x60011
                 ; 0003 006C         {
                 ; 0003 006D             vel_counter_high_R = vel_counter_high+15;
00041a 940e 0a31 	CALL SUBOPT_0x28
00041c 963f      	ADIW R30,15
00041d 016f      	MOVW R12,R30
                 ; 0003 006E         }
                 ; 0003 006F         if(vel_counter_high_L < (vel_counter_high - 15))
                 _0x60011:
00041e 940e 0a31 	CALL SUBOPT_0x28
000420 973f      	SBIW R30,15
000421 16ae      	CP   R10,R30
000422 06bf      	CPC  R11,R31
000423 f420      	BRSH _0x60012
                 ; 0003 0070         {
                 ; 0003 0071             vel_counter_high_L = (vel_counter_high - 15);
000424 940e 0a31 	CALL SUBOPT_0x28
000426 973f      	SBIW R30,15
000427 015f      	MOVW R10,R30
                 ; 0003 0072         }
                 ; 0003 0073     }
                 _0x60012:
                 ; 0003 0074     else
000428 c002      	RJMP _0x60013
                 _0x60010:
                 ; 0003 0075     adjflagcnt++;
                +
000429 5f4f     +SUBI R20 , LOW ( - 1 )
00042a 4f5f     +SBCI R21 , HIGH ( - 1 )
                 	__ADDWRN 20,21,1
                 ; 0003 0076 
                 ; 0003 0077     if(adjflagcnt == 2)  // 오른쪽 벽과 왼쪽 벽이 둘다 멀지 않을 경우
                 _0x60013:
00042b e0e2      	LDI  R30,LOW(2)
00042c e0f0      	LDI  R31,HIGH(2)
00042d 17e4      	CP   R30,R20
00042e 07f5      	CPC  R31,R21
00042f f411      	BRNE _0x60014
                 ; 0003 0078 	{
                 ; 0003 0079 		vel_counter_high_L = vel_counter_high;  // 속도 동일하게
000430 940e 0a09 	CALL SUBOPT_0x23
                 ; 0003 007A 		vel_counter_high_R = vel_counter_high;
                 ; 0003 007B 
                 ; 0003 007C 	}
                 ; 0003 007D     VelocityLeftmotorTCNT1 = vel_counter_high_L;
                 _0x60014:
000432 940e 0a36 	CALL SUBOPT_0x29
                 ; 0003 007E     VelocityRightmotorTCNT3 = vel_counter_high_R;
                 ; 0003 007F }
000434 940e 0cd3 	CALL __LOADLOCR6
000436 c276      	RJMP _0x20A0004
                 ;
                 ;int adjustmouse_Super(void)  //보정
                 ; 0003 0082 {
                 _adjustmouse_Super:
                 ; 0003 0083     int adjLeftSensor,adjRightSensor;  //보정하기위한 센서값을 저장한 변수
                 ; 0003 0084     int adjflagcnt = 0;
                 ; 0003 0085 
                 ; 0003 0086     adjLeftSensor = readSensor(LEFT_SENSOR);
000437 940e 09fa 	CALL SUBOPT_0x21
                 ;	adjLeftSensor -> R16,R17
                 ;	adjRightSensor -> R18,R19
                 ;	adjflagcnt -> R20,R21
000439 018f      	MOVW R16,R30
                 ; 0003 0087     adjRightSensor = readSensor(RIGHT_SENSOR);  //읽어들인 센서값을 저장
00043a 940e 0937 	CALL SUBOPT_0x7
00043c 940e 09ff 	CALL SUBOPT_0x22
                 ; 0003 0088 
                 ; 0003 0089     vel_counter_high_L=VelocityLeftmotorTCNT1;   //모터 속도 65250 으로 초기화
                 ; 0003 008A     vel_counter_high_R=VelocityRightmotorTCNT3;  //모터 속도 65400 으로 초기화
                 ; 0003 008B 
                 ; 0003 008C 
                 ; 0003 008D     if(adjRightSensor > CenterStandardSensor[2])  //미로 주행 중 오른 쪽 벽에 너무 가까이 붙었을 경우
00043e 940e 09ba 	CALL SUBOPT_0x17
000440 17e2      	CP   R30,R18
000441 07f3      	CPC  R31,R19
000442 f45c      	BRGE _0x60015
                 ; 0003 008E     {
                 ; 0003 008F         vel_counter_high_L-=2;
000443 940e 0a3f 	CALL SUBOPT_0x2A
                 ; 0003 0090         vel_counter_high_R+=1;
                 ; 0003 0091         if(vel_counter_high_R > vel_counter_high+20)
000445 f410      	BRSH _0x60016
                 ; 0003 0092             vel_counter_high_R = vel_counter_high+20;
000446 940e 0a4a 	CALL SUBOPT_0x2B
                 ; 0003 0093         if(vel_counter_high_L < (vel_counter_high-20))
                 _0x60016:
000448 940e 0a4e 	CALL SUBOPT_0x2C
00044a f410      	BRSH _0x60017
                 ; 0003 0094             vel_counter_high_L = (vel_counter_high-20);
00044b 940e 0a53 	CALL SUBOPT_0x2D
                 ; 0003 0095         //왼쪽 모터의 속도를 줄이고 오른쪽 모터의 속도를 높여서 오른쪽 벽에서 멀어지도록 하였다.
                 ; 0003 0096     }
                 _0x60017:
                 ; 0003 0097     else
00044d c024      	RJMP _0x60018
                 _0x60015:
                 ; 0003 0098     {
                 ; 0003 0099         if(adjRightSensor < CenterStandardSensor[2]) // 오른쪽 벽이 멀 경우
00044e 940e 09ba 	CALL SUBOPT_0x17
000450 172e      	CP   R18,R30
000451 073f      	CPC  R19,R31
000452 f45c      	BRGE _0x60019
                 ; 0003 009A         {
                 ; 0003 009B             vel_counter_high_L+=1;
000453 940e 0a57 	CALL SUBOPT_0x2E
                 ; 0003 009C             vel_counter_high_R-=2;
                 ; 0003 009D             if(vel_counter_high_L > vel_counter_high+20)
000455 f410      	BRSH _0x6001A
                 ; 0003 009E                 vel_counter_high_L = vel_counter_high+20;
000456 940e 0a62 	CALL SUBOPT_0x2F
                 ; 0003 009F             if(vel_counter_high_R < vel_counter_high-20)
                 _0x6001A:
000458 940e 0a66 	CALL SUBOPT_0x30
00045a f410      	BRSH _0x6001B
                 ; 0003 00A0                 vel_counter_high_R = vel_counter_high-20;
00045b 940e 0a6b 	CALL SUBOPT_0x31
                 ; 0003 00A1             //오른쪽 벽이 멀 경우에 왼쪽 모터의 속도를 높이고 오른쪽 모터의 속도를 줄여서 주행경로의 가운데에 마우스가 위치하게 한다.
                 ; 0003 00A2         }
                 _0x6001B:
                 ; 0003 00A3         else
00045d c002      	RJMP _0x6001C
                 _0x60019:
                 ; 0003 00A4             adjflagcnt++;  //오른쪽 벽에 너무 가깝지도 않고, 멀지도 않은 경우 flagcnt 증가
                +
00045e 5f4f     +SUBI R20 , LOW ( - 1 )
00045f 4f5f     +SBCI R21 , HIGH ( - 1 )
                 	__ADDWRN 20,21,1
                 ; 0003 00A5 
                 ; 0003 00A6         if(adjLeftSensor < CenterStandardSensor[1]) // 왼쪽 벽이 멀 경우
                 _0x6001C:
000460 940e 09b5 	CALL SUBOPT_0x16
000462 170e      	CP   R16,R30
000463 071f      	CPC  R17,R31
000464 f45c      	BRGE _0x6001D
                 ; 0003 00A7         {
                 ; 0003 00A8             vel_counter_high_L-=2;
000465 940e 0a3f 	CALL SUBOPT_0x2A
                 ; 0003 00A9             vel_counter_high_R+=1;
                 ; 0003 00AA             if(vel_counter_high_R > vel_counter_high+20)
000467 f410      	BRSH _0x6001E
                 ; 0003 00AB                 vel_counter_high_R = vel_counter_high+20;
000468 940e 0a4a 	CALL SUBOPT_0x2B
                 ; 0003 00AC             if(vel_counter_high_L < (vel_counter_high-20))
                 _0x6001E:
00046a 940e 0a4e 	CALL SUBOPT_0x2C
00046c f410      	BRSH _0x6001F
                 ; 0003 00AD                 vel_counter_high_L = (vel_counter_high-20);
00046d 940e 0a53 	CALL SUBOPT_0x2D
                 ; 0003 00AE             //왼쪽 벽이 멀 경우에 오른쪽 모터의 속도를 높이고 왼쪽 모터의 속도를 줄여서 주행경로의 가운데에 마우스가 위치하도록 한다.
                 ; 0003 00AF         }
                 _0x6001F:
                 ; 0003 00B0         else
00046f c002      	RJMP _0x60020
                 _0x6001D:
                 ; 0003 00B1             adjflagcnt++;   //오른쪽 벽에 너무 가깝지도 않고, 왼쪽 벽과도 멀지 않은 경우 flagcnt 증가
                +
000470 5f4f     +SUBI R20 , LOW ( - 1 )
000471 4f5f     +SBCI R21 , HIGH ( - 1 )
                 	__ADDWRN 20,21,1
                 ; 0003 00B2     }
                 _0x60020:
                 _0x60018:
                 ; 0003 00B3 
                 ; 0003 00B4     if(adjLeftSensor > CenterStandardSensor[1])  //마우스가 왼쪽 벽에 너무 가까이 붙은 경우
000472 940e 09b5 	CALL SUBOPT_0x16
000474 17e0      	CP   R30,R16
000475 07f1      	CPC  R31,R17
000476 f45c      	BRGE _0x60021
                 ; 0003 00B5     {
                 ; 0003 00B6         vel_counter_high_L+=1;
000477 940e 0a57 	CALL SUBOPT_0x2E
                 ; 0003 00B7         vel_counter_high_R-=2;
                 ; 0003 00B8         if(vel_counter_high_L > vel_counter_high+20)
000479 f410      	BRSH _0x60022
                 ; 0003 00B9             vel_counter_high_L = vel_counter_high+20;
00047a 940e 0a62 	CALL SUBOPT_0x2F
                 ; 0003 00BA         if(vel_counter_high_R < vel_counter_high-20)
                 _0x60022:
00047c 940e 0a66 	CALL SUBOPT_0x30
00047e f410      	BRSH _0x60023
                 ; 0003 00BB             vel_counter_high_R = vel_counter_high-20;
00047f 940e 0a6b 	CALL SUBOPT_0x31
                 ; 0003 00BC         //왼쪽모터의 속도를 높이고 오른쪽 모터의 속도를 줄여서 주행경로의 가운데에 마우스가 위치하도록 한다.
                 ; 0003 00BD     }
                 _0x60023:
                 ; 0003 00BE     else
000481 c024      	RJMP _0x60024
                 _0x60021:
                 ; 0003 00BF     {
                 ; 0003 00C0         if(adjRightSensor < CenterStandardSensor[2]) // 오른쪽 벽이 멀 경우
000482 940e 09ba 	CALL SUBOPT_0x17
000484 172e      	CP   R18,R30
000485 073f      	CPC  R19,R31
000486 f45c      	BRGE _0x60025
                 ; 0003 00C1         {
                 ; 0003 00C2             vel_counter_high_L+=1;
000487 940e 0a57 	CALL SUBOPT_0x2E
                 ; 0003 00C3             vel_counter_high_R-=2;
                 ; 0003 00C4             if(vel_counter_high_L > vel_counter_high+20)
000489 f410      	BRSH _0x60026
                 ; 0003 00C5                 vel_counter_high_L = vel_counter_high+20;
00048a 940e 0a62 	CALL SUBOPT_0x2F
                 ; 0003 00C6             if(vel_counter_high_R < vel_counter_high-20)
                 _0x60026:
00048c 940e 0a66 	CALL SUBOPT_0x30
00048e f410      	BRSH _0x60027
                 ; 0003 00C7                 vel_counter_high_R = vel_counter_high-20;
00048f 940e 0a6b 	CALL SUBOPT_0x31
                 ; 0003 00C8             //왼쪽모터의 속도를 높이고 오른쪽 모터의 속도를 줄여서 주행경로의 가운데에 마우스가 위치하도록 한다.
                 ; 0003 00C9         }
                 _0x60027:
                 ; 0003 00CA         else
000491 c002      	RJMP _0x60028
                 _0x60025:
                 ; 0003 00CB             adjflagcnt++;  //왼쪽 벽에 너무 가깝지 않고 오른쪽 벽과도 멀지 않은 경우 flagcnt 증가
                +
000492 5f4f     +SUBI R20 , LOW ( - 1 )
000493 4f5f     +SBCI R21 , HIGH ( - 1 )
                 	__ADDWRN 20,21,1
                 ; 0003 00CC 
                 ; 0003 00CD         if(adjLeftSensor < CenterStandardSensor[1]) // 왼쪽 벽이 멀 경우
                 _0x60028:
000494 940e 09b5 	CALL SUBOPT_0x16
000496 170e      	CP   R16,R30
000497 071f      	CPC  R17,R31
000498 f45c      	BRGE _0x60029
                 ; 0003 00CE         {
                 ; 0003 00CF             vel_counter_high_L-=2;
000499 940e 0a3f 	CALL SUBOPT_0x2A
                 ; 0003 00D0             vel_counter_high_R+=1;
                 ; 0003 00D1             if(vel_counter_high_R > vel_counter_high+20)
00049b f410      	BRSH _0x6002A
                 ; 0003 00D2                 vel_counter_high_R = vel_counter_high+20;
00049c 940e 0a4a 	CALL SUBOPT_0x2B
                 ; 0003 00D3             if(vel_counter_high_L < (vel_counter_high-20))
                 _0x6002A:
00049e 940e 0a4e 	CALL SUBOPT_0x2C
0004a0 f410      	BRSH _0x6002B
                 ; 0003 00D4                 vel_counter_high_L = (vel_counter_high-20);
0004a1 940e 0a53 	CALL SUBOPT_0x2D
                 ; 0003 00D5             //왼쪽 모터의 속도를 줄이고 오른쪽 모터의 속도를 줄여 주행경로의 가운데에 마우스가 위치하도록 한다.
                 ; 0003 00D6         }
                 _0x6002B:
                 ; 0003 00D7         else
0004a3 c002      	RJMP _0x6002C
                 _0x60029:
                 ; 0003 00D8             adjflagcnt++;  //왼쪽 벽에 너무 붙지도 않고, 왼쪽 벽에 멀지 않은 경우(마우스가 주행경로의 가운데) flagcnt 증가
                +
0004a4 5f4f     +SUBI R20 , LOW ( - 1 )
0004a5 4f5f     +SBCI R21 , HIGH ( - 1 )
                 	__ADDWRN 20,21,1
                 ; 0003 00D9 
                 ; 0003 00DA     }
                 _0x6002C:
                 _0x60024:
                 ; 0003 00DB 
                 ; 0003 00DC     if(adjRightSensor < StandardSensor[2]) //오른쪽 벽이 존재하지 않을 경우
0004a6 940e 09ab 	CALL SUBOPT_0x14
0004a8 172e      	CP   R18,R30
0004a9 073f      	CPC  R19,R31
0004aa f4f4      	BRGE _0x6002D
                 ; 0003 00DD     {
                 ; 0003 00DE         if(adjLeftSensor < CenterStandardSensor[1]) // 왼쪽 벽이 멀 경우
0004ab 940e 09b5 	CALL SUBOPT_0x16
0004ad 170e      	CP   R16,R30
0004ae 071f      	CPC  R17,R31
0004af f454      	BRGE _0x6002E
                 ; 0003 00DF         {
                 ; 0003 00E0             vel_counter_high_L-=2;
0004b0 940e 0a3f 	CALL SUBOPT_0x2A
                 ; 0003 00E1             vel_counter_high_R+=1;
                 ; 0003 00E2             if(vel_counter_high_R > vel_counter_high+20)
0004b2 f410      	BRSH _0x6002F
                 ; 0003 00E3                 vel_counter_high_R = vel_counter_high+20;
0004b3 940e 0a4a 	CALL SUBOPT_0x2B
                 ; 0003 00E4             if(vel_counter_high_L < (vel_counter_high-20))
                 _0x6002F:
0004b5 940e 0a4e 	CALL SUBOPT_0x2C
0004b7 f410      	BRSH _0x60030
                 ; 0003 00E5                 vel_counter_high_L = (vel_counter_high-20);
0004b8 940e 0a53 	CALL SUBOPT_0x2D
                 ; 0003 00E6             //왼쪽 벽이 멀 경우에 오른쪽 모터의 속도를 높이고 왼쪽 모터의 속도를 줄여서 주행경로의 가운데에 마우스가 위치하도록 한다.
                 ; 0003 00E7         }
                 _0x60030:
                 ; 0003 00E8         if(adjLeftSensor > CenterStandardSensor[1])  //마우스가 왼쪽 벽에 너무 가까이 붙은 경우
                 _0x6002E:
0004ba 940e 09b5 	CALL SUBOPT_0x16
0004bc 17e0      	CP   R30,R16
0004bd 07f1      	CPC  R31,R17
0004be f454      	BRGE _0x60031
                 ; 0003 00E9         {
                 ; 0003 00EA         vel_counter_high_L+=1;
0004bf 940e 0a57 	CALL SUBOPT_0x2E
                 ; 0003 00EB         vel_counter_high_R-=2;
                 ; 0003 00EC         if(vel_counter_high_L > vel_counter_high+20)
0004c1 f410      	BRSH _0x60032
                 ; 0003 00ED             vel_counter_high_L = vel_counter_high+20;
0004c2 940e 0a62 	CALL SUBOPT_0x2F
                 ; 0003 00EE         if(vel_counter_high_R < vel_counter_high-20)
                 _0x60032:
0004c4 940e 0a66 	CALL SUBOPT_0x30
0004c6 f410      	BRSH _0x60033
                 ; 0003 00EF             vel_counter_high_R = vel_counter_high-20;
0004c7 940e 0a6b 	CALL SUBOPT_0x31
                 ; 0003 00F0         //왼쪽모터의 속도를 높이고 오른쪽 모터의 속도를 줄여서 주행경로의 가운데에 마우스가 위치하도록 한다.
                 ; 0003 00F1         }
                 _0x60033:
                 ; 0003 00F2     }
                 _0x60031:
                 ; 0003 00F3 
                 ; 0003 00F4      if(adjLeftSensor < StandardSensor[2]) //왼쪽 벽이 존재하지 않을 경우
                 _0x6002D:
0004c9 940e 09ab 	CALL SUBOPT_0x14
0004cb 170e      	CP   R16,R30
0004cc 071f      	CPC  R17,R31
0004cd f4f4      	BRGE _0x60034
                 ; 0003 00F5      {
                 ; 0003 00F6            if(adjRightSensor < CenterStandardSensor[2]) // 오른쪽 벽이 멀 경우
0004ce 940e 09ba 	CALL SUBOPT_0x17
0004d0 172e      	CP   R18,R30
0004d1 073f      	CPC  R19,R31
0004d2 f454      	BRGE _0x60035
                 ; 0003 00F7         {
                 ; 0003 00F8             vel_counter_high_L+=1;
0004d3 940e 0a57 	CALL SUBOPT_0x2E
                 ; 0003 00F9             vel_counter_high_R-=2;
                 ; 0003 00FA             if(vel_counter_high_L > vel_counter_high+20)
0004d5 f410      	BRSH _0x60036
                 ; 0003 00FB                 vel_counter_high_L = vel_counter_high+20;
0004d6 940e 0a62 	CALL SUBOPT_0x2F
                 ; 0003 00FC             if(vel_counter_high_R < vel_counter_high-20)
                 _0x60036:
0004d8 940e 0a66 	CALL SUBOPT_0x30
0004da f410      	BRSH _0x60037
                 ; 0003 00FD                 vel_counter_high_R = vel_counter_high-20;
0004db 940e 0a6b 	CALL SUBOPT_0x31
                 ; 0003 00FE             //왼쪽모터의 속도를 높이고 오른쪽 모터의 속도를 줄여서 주행경로의 가운데에 마우스가 위치하도록 한다.
                 ; 0003 00FF         }
                 _0x60037:
                 ; 0003 0100         if(adjRightSensor > CenterStandardSensor[2])  //미로 주행 중 오른 쪽 벽에 너무 가까이 붙었을 경우
                 _0x60035:
0004dd 940e 09ba 	CALL SUBOPT_0x17
0004df 17e2      	CP   R30,R18
0004e0 07f3      	CPC  R31,R19
0004e1 f454      	BRGE _0x60038
                 ; 0003 0101          {
                 ; 0003 0102         vel_counter_high_L-=2;
0004e2 940e 0a3f 	CALL SUBOPT_0x2A
                 ; 0003 0103         vel_counter_high_R+=1;
                 ; 0003 0104         if(vel_counter_high_R > vel_counter_high+20)
0004e4 f410      	BRSH _0x60039
                 ; 0003 0105             vel_counter_high_R = vel_counter_high+20;
0004e5 940e 0a4a 	CALL SUBOPT_0x2B
                 ; 0003 0106         if(vel_counter_high_L < (vel_counter_high-20))
                 _0x60039:
0004e7 940e 0a4e 	CALL SUBOPT_0x2C
0004e9 f410      	BRSH _0x6003A
                 ; 0003 0107             vel_counter_high_L = (vel_counter_high-20);
0004ea 940e 0a53 	CALL SUBOPT_0x2D
                 ; 0003 0108         //왼쪽 모터의 속도를 줄이고 오른쪽 모터의 속도를 높여서 오른쪽 벽에서 멀어지도록 하였다.
                 ; 0003 0109         }
                 _0x6003A:
                 ; 0003 010A 
                 ; 0003 010B      }
                 _0x60038:
                 ; 0003 010C 
                 ; 0003 010D     if(adjflagcnt == 2)
                 _0x60034:
0004ec e0e2      	LDI  R30,LOW(2)
0004ed e0f0      	LDI  R31,HIGH(2)
0004ee 17e4      	CP   R30,R20
0004ef 07f5      	CPC  R31,R21
0004f0 f411      	BRNE _0x6003B
                 ; 0003 010E     {       // 속도 동일하게
                 ; 0003 010F         vel_counter_high_L = vel_counter_high;
0004f1 940e 0a09 	CALL SUBOPT_0x23
                 ; 0003 0110         vel_counter_high_R = vel_counter_high;
                 ; 0003 0111     }
                 ; 0003 0112     return 0;
                 _0x6003B:
0004f3 e0e0      	LDI  R30,LOW(0)
0004f4 e0f0      	LDI  R31,HIGH(0)
0004f5 940e 0cd3 	CALL __LOADLOCR6
0004f7 c1b5      	RJMP _0x20A0004
                 ; 0003 0113 }
                 ;
                 ;void InitializeStepmotor(void)
                 ; 0003 0116 {
                 _InitializeStepmotor:
                 ; 0003 0117 	double distance4perStep;
                 ; 0003 0118     double distance4perStep_smooth;
                 ; 0003 0119 
                 ; 0003 011A // LEFT MOTOR - PORTD 4,5,6,7
                 ; 0003 011B      PORTD&=0x0F;
0004f8 9728      	SBIW R28,8
                 ;	distance4perStep -> Y+4
                 ;	distance4perStep_smooth -> Y+0
0004f9 b3e2      	IN   R30,0x12
0004fa 70ef      	ANDI R30,LOW(0xF)
0004fb bbe2      	OUT  0x12,R30
                 ; 0003 011C      DDRD|=0xF0;
0004fc b3e1      	IN   R30,0x11
0004fd 6fe0      	ORI  R30,LOW(0xF0)
0004fe bbe1      	OUT  0x11,R30
                 ; 0003 011D 
                 ; 0003 011E // RIGHT MOTOR - PORTE 4,5,6,7
                 ; 0003 011F      PORTE&=0x0F;
0004ff b1e3      	IN   R30,0x3
000500 70ef      	ANDI R30,LOW(0xF)
000501 b9e3      	OUT  0x3,R30
                 ; 0003 0120      DDRE|=0xF0;
000502 b1e2      	IN   R30,0x2
000503 6fe0      	ORI  R30,LOW(0xF0)
000504 b9e2      	OUT  0x2,R30
                 ; 0003 0121 
                 ; 0003 0122 // Timer/Counter 1 initialization
                 ; 0003 0123 // Clock source: System Clock
                 ; 0003 0124 // Clock value: 62.500 kHz
                 ; 0003 0125 // Mode: Normal top=FFFFh
                 ; 0003 0126 // OC1A output: Discon.
                 ; 0003 0127 // OC1B output: Discon.
                 ; 0003 0128 // OC1C output: Discon.
                 ; 0003 0129 // Noise Canceler: Off
                 ; 0003 012A // Input Capture on Falling Edge
                 ; 0003 012B // Timer 1 Overflow Interrupt: On
                 ; 0003 012C // Input Capture Interrupt: Off
                 ; 0003 012D // Compare A Match Interrupt: Off
                 ; 0003 012E // Compare B Match Interrupt: Off
                 ; 0003 012F // Compare C Match Interrupt: Off
                 ; 0003 0130      TCCR1A=0x00;
000505 e0e0      	LDI  R30,LOW(0)
000506 bdef      	OUT  0x2F,R30
                 ; 0003 0131      TCCR1B=0x04;
000507 e0e4      	LDI  R30,LOW(4)
000508 bdee      	OUT  0x2E,R30
                 ; 0003 0132      TCNT1H=0x00;
000509 e0e0      	LDI  R30,LOW(0)
00050a bded      	OUT  0x2D,R30
                 ; 0003 0133      TCNT1L=0x00;
00050b bdec      	OUT  0x2C,R30
                 ; 0003 0134      ICR1H=0x00;
00050c bde7      	OUT  0x27,R30
                 ; 0003 0135      ICR1L=0x00;
00050d bde6      	OUT  0x26,R30
                 ; 0003 0136      OCR1AH=0x00;
00050e bdeb      	OUT  0x2B,R30
                 ; 0003 0137      OCR1AL=0x00;
00050f bdea      	OUT  0x2A,R30
                 ; 0003 0138      OCR1BH=0x00;
000510 bde9      	OUT  0x29,R30
                 ; 0003 0139      OCR1BL=0x00;
000511 bde8      	OUT  0x28,R30
                 ; 0003 013A      OCR1CH=0x00;
000512 93e0 0079 	STS  121,R30
                 ; 0003 013B      OCR1CL=0x00;
000514 93e0 0078 	STS  120,R30
                 ; 0003 013C 
                 ; 0003 013D // Timer/Counter 3 initialization
                 ; 0003 013E // Clock source: System Clock
                 ; 0003 013F // Clock value: 62.500 kHz
                 ; 0003 0140 // Mode: Normal top=FFFFh
                 ; 0003 0141 // OC3A output: Discon.
                 ; 0003 0142 // OC3B output: Discon.
                 ; 0003 0143 // OC3C output: Discon.
                 ; 0003 0144 // Noise Canceler: Off
                 ; 0003 0145 // Input Capture on Falling Edge
                 ; 0003 0146 // Timer 3 Overflow Interrupt: On
                 ; 0003 0147 // Input Capture Interrupt: Off
                 ; 0003 0148 // Compare A Match Interrupt: Off
                 ; 0003 0149 // Compare B Match Interrupt: Off
                 ; 0003 014A // Compare C Match Interrupt: Off
                 ; 0003 014B      TCCR3A=0x00;
000516 93e0 008b 	STS  139,R30
                 ; 0003 014C      TCCR3B=0x04;
000518 e0e4      	LDI  R30,LOW(4)
000519 93e0 008a 	STS  138,R30
                 ; 0003 014D      TCNT3H=0x00;
00051b e0e0      	LDI  R30,LOW(0)
00051c 93e0 0089 	STS  137,R30
                 ; 0003 014E      TCNT3L=0x00;
00051e 93e0 0088 	STS  136,R30
                 ; 0003 014F      ICR3H=0x00;
000520 93e0 0081 	STS  129,R30
                 ; 0003 0150      ICR3L=0x00;
000522 93e0 0080 	STS  128,R30
                 ; 0003 0151      OCR3AH=0x00;
000524 93e0 0087 	STS  135,R30
                 ; 0003 0152      OCR3AL=0x00;
000526 93e0 0086 	STS  134,R30
                 ; 0003 0153      OCR3BH=0x00;
000528 93e0 0085 	STS  133,R30
                 ; 0003 0154      OCR3BL=0x00;
00052a 93e0 0084 	STS  132,R30
                 ; 0003 0155      OCR3CH=0x00;
00052c 93e0 0083 	STS  131,R30
                 ; 0003 0156      OCR3CL=0x00;
00052e 93e0 0082 	STS  130,R30
                 ; 0003 0157 
                 ; 0003 0158 // Timer(s)/Counter(s) Interrupt(s) initialization
                 ; 0003 0159      TIMSK=0x04;
000530 e0e4      	LDI  R30,LOW(4)
000531 bfe7      	OUT  0x37,R30
                 ; 0003 015A      ETIMSK=0x04;
000532 93e0 007d 	STS  125,R30
                 ; 0003 015B 
                 ; 0003 015C 	LeftstepCount = 0;
000534 2444      	CLR  R4
000535 2455      	CLR  R5
                 ; 0003 015D     RightstepCount = 0;
000536 2466      	CLR  R6
000537 2477      	CLR  R7
                 ; 0003 015E     vel_counter_high = 65400;
000538 e7e8      	LDI  R30,LOW(65400)
000539 efff      	LDI  R31,HIGH(65400)
00053a 93e0 0514 	STS  _vel_counter_high,R30
00053c 93f0 0515 	STS  _vel_counter_high+1,R31
                 ; 0003 015F     VelocityLeftmotorTCNT1 = vel_counter_high;
00053e 940e 0a31 	CALL SUBOPT_0x28
000540 940e 09eb 	CALL SUBOPT_0x1E
                 ; 0003 0160     VelocityRightmotorTCNT3 = vel_counter_high;
000542 940e 0a31 	CALL SUBOPT_0x28
000544 940e 09f5 	CALL SUBOPT_0x20
                 ; 0003 0161 // LEFT MOTOR - PORTD 4,5,6,7
                 ; 0003 0162 	PORTD&=0x0F;
000546 b3e2      	IN   R30,0x12
000547 70ef      	ANDI R30,LOW(0xF)
000548 bbe2      	OUT  0x12,R30
                 ; 0003 0163 // Timer(s)/Counter(s) Interrupt(s) initialization
                 ; 0003 0164 	TIMSK=0x04;
000549 e0e4      	LDI  R30,LOW(4)
00054a bfe7      	OUT  0x37,R30
                 ; 0003 0165 	ETIMSK=0x04;
00054b 93e0 007d 	STS  125,R30
                 ; 0003 0166 
                 ; 0003 0167 	distance4perStep = (double)(PI * TIRE_RAD / (double)MOTOR_STEP);
                +
00054d e4eb     +LDI R30 , LOW ( 0x3ECD154B )
00054e e1f5     +LDI R31 , HIGH ( 0x3ECD154B )
00054f ec6d     +LDI R22 , BYTE3 ( 0x3ECD154B )
000550 e37e     +LDI R23 , BYTE4 ( 0x3ECD154B )
                 	__GETD1N 0x3ECD154B
                +
000551 83ec     +STD Y + 4 , R30
000552 83fd     +STD Y + 4 + 1 , R31
000553 836e     +STD Y + 4 + 2 , R22
000554 837f     +STD Y + 4 + 3 , R23
                 	__PUTD1S 4
                 ; 0003 0168     distance4perStep_smooth = (double)(PI * TIRE_RAD2 / (double)MOTOR_STEP);
                +
000555 ebea     +LDI R30 , LOW ( 0x3ED11ABA )
000556 e1fa     +LDI R31 , HIGH ( 0x3ED11ABA )
000557 ed61     +LDI R22 , BYTE3 ( 0x3ED11ABA )
000558 e37e     +LDI R23 , BYTE4 ( 0x3ED11ABA )
                 	__GETD1N 0x3ED11ABA
000559 940e 0c8c 	CALL __PUTD1S0
                 ; 0003 0169 
                 ; 0003 016A 	Information.nStep4perBlock = (int)((double)185. / distance4perStep);
00055b 940e 0a6f 	CALL SUBOPT_0x32
                +
00055d e0a0     +LDI R26 , LOW ( 0x43390000 )
00055e e0b0     +LDI R27 , HIGH ( 0x43390000 )
00055f e389     +LDI R24 , BYTE3 ( 0x43390000 )
000560 e493     +LDI R25 , BYTE4 ( 0x43390000 )
                 	__GETD2N 0x43390000
000561 940e 0a74 	CALL SUBOPT_0x33
000563 93e0 0516 	STS  _Information,R30
000565 93f0 0517 	STS  _Information+1,R31
                 ; 0003 016B 	Information.nStep4Turn90forRight = (int)((PI*MOUSE_WIDTH/3.55)/distance4perStep);
000567 940e 0a6f 	CALL SUBOPT_0x32
                +
000569 efab     +LDI R26 , LOW ( 0x429121FB )
00056a e2b1     +LDI R27 , HIGH ( 0x429121FB )
00056b e981     +LDI R24 , BYTE3 ( 0x429121FB )
00056c e492     +LDI R25 , BYTE4 ( 0x429121FB )
                 	__GETD2N 0x429121FB
00056d 940e 0a74 	CALL SUBOPT_0x33
                +
00056f 93e0 0518+STS _Information + ( 2 ) , R30
000571 93f0 0519+STS _Information + ( 2 ) + 1 , R31
                 	__PUTW1MN _Information,2
                 ; 0003 016C 	Information.nStep4Turn90forLeft = (int)((PI*MOUSE_WIDTH/3.85)/distance4perStep);
000573 940e 0a6f 	CALL SUBOPT_0x32
000575 940e 0a79 	CALL SUBOPT_0x34
                +
000577 93e0 051a+STS _Information + ( 4 ) , R30
000579 93f0 051b+STS _Information + ( 4 ) + 1 , R31
                 	__PUTW1MN _Information,4
                 ; 0003 016D     Information.nStep4Turn90_smooth = (int)((PI*MOUSE_WIDTH/3.85)/distance4perStep_smooth);
00057b 940e 0c87 	CALL __GETD1S0
00057d 940e 0a79 	CALL SUBOPT_0x34
                +
00057f 93e0 051c+STS _Information + ( 6 ) , R30
000581 93f0 051d+STS _Information + ( 6 ) + 1 , R31
                 	__PUTW1MN _Information,6
                 ; 0003 016E }
000583 9628      	ADIW R28,8
000584 9508      	RET
                 ;
                 ;void Direction(int mode)
                 ; 0003 0171 {
                 _Direction:
                 ; 0003 0172      int LStepCount = 0, RStepCount = 0;
                 ; 0003 0173 
                 ; 0003 0174      TCCR1B = 0x04;
000585 940e 0cce 	CALL __SAVELOCR4
                 ;	mode -> Y+4
                 ;	LStepCount -> R16,R17
                 ;	RStepCount -> R18,R19
                +
000587 e000     +LDI R16 , LOW ( 0 )
000588 e010     +LDI R17 , HIGH ( 0 )
                 	__GETWRN 16,17,0
                +
000589 e020     +LDI R18 , LOW ( 0 )
00058a e030     +LDI R19 , HIGH ( 0 )
                 	__GETWRN 18,19,0
00058b e0e4      	LDI  R30,LOW(4)
00058c bdee      	OUT  0x2E,R30
                 ; 0003 0175      TCCR3B = 0x04;
00058d 93e0 008a 	STS  138,R30
                 ; 0003 0176 
                 ; 0003 0177      direction_control = mode;
00058f 809c      	LDD  R9,Y+4
                 ; 0003 0178 
                 ; 0003 0179      Flag.LmotorRun = FALSE;
000590 e0e0      	LDI  R30,LOW(0)
000591 93e0 051e 	STS  _Flag,R30
                 ; 0003 017A      Flag.RmotorRun = FALSE;
                +
000593 93e0 051f+STS _Flag + ( 1 ) , R30
                 	__PUTB1MN _Flag,1
                 ; 0003 017B 
                 ; 0003 017C      switch(mode)
000595 81ec      	LDD  R30,Y+4
000596 81fd      	LDD  R31,Y+4+1
                 ; 0003 017D      {
                 ; 0003 017E      case FORWARD:
000597 30e4      	CPI  R30,LOW(0x4)
000598 e0a0      	LDI  R26,HIGH(0x4)
000599 07fa      	CPC  R31,R26
00059a f4d9      	BRNE _0x6003F
                 ; 0003 017F           while(LStepCount<Information.nStep4perBlock || RStepCount<Information.nStep4perBlock)
                 _0x60040:
00059b 940e 0a7e 	CALL SUBOPT_0x35
00059d 170e      	CP   R16,R30
00059e 071f      	CPC  R17,R31
00059f f02c      	BRLT _0x60043
0005a0 940e 0a7e 	CALL SUBOPT_0x35
0005a2 172e      	CP   R18,R30
0005a3 073f      	CPC  R19,R31
0005a4 f484      	BRGE _0x60042
                 _0x60043:
                 ; 0003 0180           {
                 ; 0003 0181               adjustmouse();  // 직진으로 진행하며 좌우 보정을 진행해야 하기에 코드 첫 부분에 삽입했다.
0005a5 de25      	RCALL _adjustmouse
                 ; 0003 0182               VelocityLeftmotorTCNT1=vel_counter_high_L;
0005a6 940e 0a36 	CALL SUBOPT_0x29
                 ; 0003 0183               VelocityRightmotorTCNT3=vel_counter_high_R;
                 ; 0003 0184                if(Flag.LmotorRun)
0005a8 91e0 051e 	LDS  R30,_Flag
0005aa 30e0      	CPI  R30,0
0005ab f011      	BREQ _0x60045
                 ; 0003 0185                {
                 ; 0003 0186                     LStepCount++;
0005ac 940e 0a83 	CALL SUBOPT_0x36
                 ; 0003 0187                     Flag.LmotorRun = FALSE;
                 ; 0003 0188                }
                 ; 0003 0189                if(Flag.RmotorRun)
                 _0x60045:
                +
0005ae 91e0 051f+LDS R30 , _Flag + ( 1 )
                 	__GETB1MN _Flag,1
0005b0 30e0      	CPI  R30,0
0005b1 f011      	BREQ _0x60046
                 ; 0003 018A                {
                 ; 0003 018B                     RStepCount++;
0005b2 940e 0a89 	CALL SUBOPT_0x37
                 ; 0003 018C                     Flag.RmotorRun = FALSE;
                 ; 0003 018D                }
                 ; 0003 018E           }
                 _0x60046:
0005b4 cfe6      	RJMP _0x60040
                 _0x60042:
                 ; 0003 018F           break;
0005b5 c0f1      	RJMP _0x6003E
                 ; 0003 0190      case HALF:
                 _0x6003F:
0005b6 30e8      	CPI  R30,LOW(0x8)
0005b7 e0a0      	LDI  R26,HIGH(0x8)
0005b8 07fa      	CPC  R31,R26
0005b9 f551      	BRNE _0x60047
                 ; 0003 0191           while(LStepCount<(Information.nStep4perBlock>>1) || RStepCount<(Information.nStep4perBlock>>1))
                 _0x60048:
0005ba 940e 0a7e 	CALL SUBOPT_0x35
0005bc 95f5      	ASR  R31
0005bd 95e7      	ROR  R30
0005be 170e      	CP   R16,R30
0005bf 071f      	CPC  R17,R31
0005c0 f01c      	BRLT _0x6004B
0005c1 172e      	CP   R18,R30
0005c2 073f      	CPC  R19,R31
0005c3 f4fc      	BRGE _0x6004A
                 _0x6004B:
                 ; 0003 0192           {
                 ; 0003 0193                if(readSensor(FRONT_SENSOR)>=CenterStandardSensor[0])
0005c4 940e 0933 	CALL SUBOPT_0x6
0005c6 010f      	MOVW R0,R30
0005c7 940e 09b0 	CALL SUBOPT_0x15
0005c9 160e      	CP   R0,R30
0005ca 061f      	CPC  R1,R31
0005cb f4b8      	BRSH _0x6004A
                 ; 0003 0194                break;   // 오차가 누적되어 전방에 벽이 있을 경우 바로 멈추게 함.
                 ; 0003 0195 
                 ; 0003 0196                if(Flag.LmotorRun || Flag.RmotorRun)
0005cc 91e0 051e 	LDS  R30,_Flag
0005ce 30e0      	CPI  R30,0
0005cf f421      	BRNE _0x6004F
                +
0005d0 91e0 051f+LDS R30 , _Flag + ( 1 )
                 	__GETB1MN _Flag,1
0005d2 30e0      	CPI  R30,0
0005d3 f011      	BREQ _0x6004E
                 _0x6004F:
                 ; 0003 0197                {    // Step이 진행될 때 마다 보정이 진행되게끔 한다.
                 ; 0003 0198                     vel_counter_high_L= VelocityLeftmotorTCNT1;
0005d4 940e 0a8f 	CALL SUBOPT_0x38
                 ; 0003 0199                     vel_counter_high_R =VelocityRightmotorTCNT3;
                 ; 0003 019A                     adjustmouse_Super();
                 ; 0003 019B                     VelocityLeftmotorTCNT1 =  vel_counter_high_L;
                 ; 0003 019C                     VelocityRightmotorTCNT3 = vel_counter_high_R;
                 ; 0003 019D                }
                 ; 0003 019E 
                 ; 0003 019F 
                 ; 0003 01A0                if(Flag.LmotorRun)
                 _0x6004E:
0005d6 91e0 051e 	LDS  R30,_Flag
0005d8 30e0      	CPI  R30,0
0005d9 f011      	BREQ _0x60051
                 ; 0003 01A1                {
                 ; 0003 01A2                     LStepCount++;
0005da 940e 0a83 	CALL SUBOPT_0x36
                 ; 0003 01A3                     Flag.LmotorRun = FALSE;
                 ; 0003 01A4                }
                 ; 0003 01A5                if(Flag.RmotorRun)
                 _0x60051:
                +
0005dc 91e0 051f+LDS R30 , _Flag + ( 1 )
                 	__GETB1MN _Flag,1
0005de 30e0      	CPI  R30,0
0005df f011      	BREQ _0x60052
                 ; 0003 01A6                {
                 ; 0003 01A7                     RStepCount++;
0005e0 940e 0a89 	CALL SUBOPT_0x37
                 ; 0003 01A8                     Flag.RmotorRun = FALSE;
                 ; 0003 01A9                }
                 ; 0003 01AA           }
                 _0x60052:
0005e2 cfd7      	RJMP _0x60048
                 _0x6004A:
                 ; 0003 01AB           break;
0005e3 c0c3      	RJMP _0x6003E
                 ; 0003 01AC 
                 ; 0003 01AD      case Quarter:
                 _0x60047:
0005e4 30ee      	CPI  R30,LOW(0xE)
0005e5 e0a0      	LDI  R26,HIGH(0xE)
0005e6 07fa      	CPC  R31,R26
0005e7 f551      	BRNE _0x60053
                 ; 0003 01AE           while(LStepCount<((Information.nStep4perBlock>>2)) || RStepCount<((Information.nStep4perBlock>>2)))
                 _0x60054:
0005e8 940e 0a7e 	CALL SUBOPT_0x35
0005ea 940e 0c34 	CALL __ASRW2
0005ec 170e      	CP   R16,R30
0005ed 071f      	CPC  R17,R31
0005ee f01c      	BRLT _0x60057
0005ef 172e      	CP   R18,R30
0005f0 073f      	CPC  R19,R31
0005f1 f4fc      	BRGE _0x60056
                 _0x60057:
                 ; 0003 01AF           {
                 ; 0003 01B0                if(readSensor(FRONT_SENSOR)>=CenterStandardSensor[0])
0005f2 940e 0933 	CALL SUBOPT_0x6
0005f4 010f      	MOVW R0,R30
0005f5 940e 09b0 	CALL SUBOPT_0x15
0005f7 160e      	CP   R0,R30
0005f8 061f      	CPC  R1,R31
0005f9 f4b8      	BRSH _0x60056
                 ; 0003 01B1                break;   // 오차가 누적되어 전방에 벽이 있을 경우 바로 멈추게 함.
                 ; 0003 01B2 
                 ; 0003 01B3                if(Flag.LmotorRun || Flag.RmotorRun)
0005fa 91e0 051e 	LDS  R30,_Flag
0005fc 30e0      	CPI  R30,0
0005fd f421      	BRNE _0x6005B
                +
0005fe 91e0 051f+LDS R30 , _Flag + ( 1 )
                 	__GETB1MN _Flag,1
000600 30e0      	CPI  R30,0
000601 f011      	BREQ _0x6005A
                 _0x6005B:
                 ; 0003 01B4                {    // Step이 진행될 때 마다 보정이 진행되게끔 한다.
                 ; 0003 01B5                     vel_counter_high_L = VelocityLeftmotorTCNT1;
000602 940e 0a8f 	CALL SUBOPT_0x38
                 ; 0003 01B6                     vel_counter_high_R = VelocityRightmotorTCNT3;
                 ; 0003 01B7                     adjustmouse_Super();
                 ; 0003 01B8                     VelocityLeftmotorTCNT1 =  vel_counter_high_L;
                 ; 0003 01B9                     VelocityRightmotorTCNT3 = vel_counter_high_R;
                 ; 0003 01BA                }
                 ; 0003 01BB 
                 ; 0003 01BC                if(Flag.LmotorRun)
                 _0x6005A:
000604 91e0 051e 	LDS  R30,_Flag
000606 30e0      	CPI  R30,0
000607 f011      	BREQ _0x6005D
                 ; 0003 01BD                {
                 ; 0003 01BE                     LStepCount++;
000608 940e 0a83 	CALL SUBOPT_0x36
                 ; 0003 01BF                     Flag.LmotorRun = FALSE;
                 ; 0003 01C0                }
                 ; 0003 01C1                if(Flag.RmotorRun)
                 _0x6005D:
                +
00060a 91e0 051f+LDS R30 , _Flag + ( 1 )
                 	__GETB1MN _Flag,1
00060c 30e0      	CPI  R30,0
00060d f011      	BREQ _0x6005E
                 ; 0003 01C2                {
                 ; 0003 01C3                     RStepCount++;
00060e 940e 0a89 	CALL SUBOPT_0x37
                 ; 0003 01C4                     Flag.RmotorRun = FALSE;
                 ; 0003 01C5                }
                 ; 0003 01C6           }
                 _0x6005E:
000610 cfd7      	RJMP _0x60054
                 _0x60056:
                 ; 0003 01C7           break;
000611 c095      	RJMP _0x6003E
                 ; 0003 01C8 
                 ; 0003 01C9      case HexaStep:
                 _0x60053:
000612 30ef      	CPI  R30,LOW(0xF)
000613 e0a0      	LDI  R26,HIGH(0xF)
000614 07fa      	CPC  R31,R26
000615 f551      	BRNE _0x6005F
                 ; 0003 01CA           while(LStepCount<(Information.nStep4perBlock>>3) || RStepCount<(Information.nStep4perBlock>>3))
                 _0x60060:
000616 940e 0a7e 	CALL SUBOPT_0x35
000618 940e 0c32 	CALL __ASRW3
00061a 170e      	CP   R16,R30
00061b 071f      	CPC  R17,R31
00061c f01c      	BRLT _0x60063
00061d 172e      	CP   R18,R30
00061e 073f      	CPC  R19,R31
00061f f4fc      	BRGE _0x60062
                 _0x60063:
                 ; 0003 01CB           {
                 ; 0003 01CC            //   adjustmouse_Super();  // 보정 함수는 앞으로 가면서 보정을 하기 때문에 삽입한다.
                 ; 0003 01CD            //   VelocityLeftmotorTCNT1=vel_counter_high_L;
                 ; 0003 01CE            //   VelocityRightmotorTCNT3=vel_counter_high_R;
                 ; 0003 01CF 
                 ; 0003 01D0                if(readSensor(FRONT_SENSOR)>=CenterStandardSensor[0])
000620 940e 0933 	CALL SUBOPT_0x6
000622 010f      	MOVW R0,R30
000623 940e 09b0 	CALL SUBOPT_0x15
000625 160e      	CP   R0,R30
000626 061f      	CPC  R1,R31
000627 f4b8      	BRSH _0x60062
                 ; 0003 01D1                break;                                                 //전방 보정 : 전방에 벽 있는 경우 정지
                 ; 0003 01D2 
                 ; 0003 01D3                if(Flag.LmotorRun || Flag.RmotorRun)
000628 91e0 051e 	LDS  R30,_Flag
00062a 30e0      	CPI  R30,0
00062b f421      	BRNE _0x60067
                +
00062c 91e0 051f+LDS R30 , _Flag + ( 1 )
                 	__GETB1MN _Flag,1
00062e 30e0      	CPI  R30,0
00062f f011      	BREQ _0x60066
                 _0x60067:
                 ; 0003 01D4                {
                 ; 0003 01D5                     vel_counter_high_L= VelocityLeftmotorTCNT1;
000630 940e 0a8f 	CALL SUBOPT_0x38
                 ; 0003 01D6                     vel_counter_high_R =VelocityRightmotorTCNT3;
                 ; 0003 01D7                     adjustmouse_Super();                                  //마우스 자세 보정
                 ; 0003 01D8                     VelocityLeftmotorTCNT1 =  vel_counter_high_L;
                 ; 0003 01D9                     VelocityRightmotorTCNT3 = vel_counter_high_R;
                 ; 0003 01DA                }
                 ; 0003 01DB 
                 ; 0003 01DC                if(Flag.LmotorRun)
                 _0x60066:
000632 91e0 051e 	LDS  R30,_Flag
000634 30e0      	CPI  R30,0
000635 f011      	BREQ _0x60069
                 ; 0003 01DD                {
                 ; 0003 01DE                     LStepCount++;
000636 940e 0a83 	CALL SUBOPT_0x36
                 ; 0003 01DF                     Flag.LmotorRun = FALSE;
                 ; 0003 01E0                }
                 ; 0003 01E1                if(Flag.RmotorRun)
                 _0x60069:
                +
000638 91e0 051f+LDS R30 , _Flag + ( 1 )
                 	__GETB1MN _Flag,1
00063a 30e0      	CPI  R30,0
00063b f011      	BREQ _0x6006A
                 ; 0003 01E2                {
                 ; 0003 01E3                     RStepCount++;
00063c 940e 0a89 	CALL SUBOPT_0x37
                 ; 0003 01E4                     Flag.RmotorRun = FALSE;
                 ; 0003 01E5                }
                 ; 0003 01E6           }
                 _0x6006A:
00063e cfd7      	RJMP _0x60060
                 _0x60062:
                 ; 0003 01E7           break;
00063f c067      	RJMP _0x6003E
                 ; 0003 01E8 
                 ; 0003 01E9      case SmoothR:
                 _0x6005F:
000640 30ed      	CPI  R30,LOW(0xD)
000641 e0a0      	LDI  R26,HIGH(0xD)
000642 07fa      	CPC  R31,R26
000643 f021      	BREQ _0x6006C
                 ; 0003 01EA      case SmoothL:
000644 30ec      	CPI  R30,LOW(0xC)
000645 e0a0      	LDI  R26,HIGH(0xC)
000646 07fa      	CPC  R31,R26
000647 f4e1      	BRNE _0x6006D
                 _0x6006C:
                 ; 0003 01EB           while(RStepCount<Information.nStep4Turn90_smooth || LStepCount<Information.nStep4Turn90_smooth)
                 _0x6006E:
                +
000648 91e0 051c+LDS R30 , _Information + ( 6 )
00064a 91f0 051d+LDS R31 , _Information + ( 6 ) + 1
                 	__GETW1MN _Information,6
00064c 172e      	CP   R18,R30
00064d 073f      	CPC  R19,R31
00064e f03c      	BRLT _0x60071
                +
00064f 91e0 051c+LDS R30 , _Information + ( 6 )
000651 91f0 051d+LDS R31 , _Information + ( 6 ) + 1
                 	__GETW1MN _Information,6
000653 170e      	CP   R16,R30
000654 071f      	CPC  R17,R31
000655 f46c      	BRGE _0x60070
                 _0x60071:
                 ; 0003 01EC           {
                 ; 0003 01ED             if(Flag.LmotorRun)
000656 91e0 051e 	LDS  R30,_Flag
000658 30e0      	CPI  R30,0
000659 f011      	BREQ _0x60073
                 ; 0003 01EE             {
                 ; 0003 01EF                 LStepCount++;
00065a 940e 0a83 	CALL SUBOPT_0x36
                 ; 0003 01F0                 Flag.LmotorRun = FALSE;
                 ; 0003 01F1             }
                 ; 0003 01F2 
                 ; 0003 01F3             if(Flag.RmotorRun)
                 _0x60073:
                +
00065c 91e0 051f+LDS R30 , _Flag + ( 1 )
                 	__GETB1MN _Flag,1
00065e 30e0      	CPI  R30,0
00065f f011      	BREQ _0x60074
                 ; 0003 01F4             {
                 ; 0003 01F5                 RStepCount++;
000660 940e 0a89 	CALL SUBOPT_0x37
                 ; 0003 01F6                 Flag.RmotorRun = FALSE;
                 ; 0003 01F7             }
                 ; 0003 01F8           }
                 _0x60074:
000662 cfe5      	RJMP _0x6006E
                 _0x60070:
                 ; 0003 01F9           break;
000663 c043      	RJMP _0x6003E
                 ; 0003 01FA      case LEFT:
                 _0x6006D:
000664 30e5      	CPI  R30,LOW(0x5)
000665 e0a0      	LDI  R26,HIGH(0x5)
000666 07fa      	CPC  R31,R26
000667 f021      	BREQ _0x60076
                 ; 0003 01FB      case RIGHT:
000668 30e6      	CPI  R30,LOW(0x6)
000669 e0a0      	LDI  R26,HIGH(0x6)
00066a 07fa      	CPC  R31,R26
00066b f4e1      	BRNE _0x60077
                 _0x60076:
                 ; 0003 01FC           while(LStepCount<Information.nStep4Turn90forLeft || RStepCount<Information.nStep4Turn90forRight)
                 _0x60078:
                +
00066c 91e0 051a+LDS R30 , _Information + ( 4 )
00066e 91f0 051b+LDS R31 , _Information + ( 4 ) + 1
                 	__GETW1MN _Information,4
000670 170e      	CP   R16,R30
000671 071f      	CPC  R17,R31
000672 f03c      	BRLT _0x6007B
                +
000673 91e0 0518+LDS R30 , _Information + ( 2 )
000675 91f0 0519+LDS R31 , _Information + ( 2 ) + 1
                 	__GETW1MN _Information,2
000677 172e      	CP   R18,R30
000678 073f      	CPC  R19,R31
000679 f46c      	BRGE _0x6007A
                 _0x6007B:
                 ; 0003 01FD           {
                 ; 0003 01FE                if(Flag.LmotorRun)
00067a 91e0 051e 	LDS  R30,_Flag
00067c 30e0      	CPI  R30,0
00067d f011      	BREQ _0x6007D
                 ; 0003 01FF                {
                 ; 0003 0200                     LStepCount++;
00067e 940e 0a83 	CALL SUBOPT_0x36
                 ; 0003 0201                     Flag.LmotorRun = FALSE;
                 ; 0003 0202                }
                 ; 0003 0203                if(Flag.RmotorRun)
                 _0x6007D:
                +
000680 91e0 051f+LDS R30 , _Flag + ( 1 )
                 	__GETB1MN _Flag,1
000682 30e0      	CPI  R30,0
000683 f011      	BREQ _0x6007E
                 ; 0003 0204                {
                 ; 0003 0205                     RStepCount++;
000684 940e 0a89 	CALL SUBOPT_0x37
                 ; 0003 0206                     Flag.RmotorRun = FALSE;
                 ; 0003 0207                }
                 ; 0003 0208           }
                 _0x6007E:
000686 cfe5      	RJMP _0x60078
                 _0x6007A:
                 ; 0003 0209           break;
000687 c01f      	RJMP _0x6003E
                 ; 0003 020A      case BACK:
                 _0x60077:
000688 30e7      	CPI  R30,LOW(0x7)
000689 e0a0      	LDI  R26,HIGH(0x7)
00068a 07fa      	CPC  R31,R26
00068b f4d9      	BRNE _0x6003E
                 ; 0003 020B           while(LStepCount<(Information.nStep4Turn90_smooth*2) || RStepCount<(Information.nStep4Turn90_smooth*2))
                 _0x60080:
                +
00068c 91a0 051c+LDS R26 , _Information + ( 6 )
00068e 91b0 051d+LDS R27 , _Information + ( 6 ) + 1
                 	__GETW2MN _Information,6
000690 e0e2      	LDI  R30,LOW(2)
000691 e0f0      	LDI  R31,HIGH(2)
000692 940e 0c46 	CALL __MULW12
000694 170e      	CP   R16,R30
000695 071f      	CPC  R17,R31
000696 f01c      	BRLT _0x60083
000697 172e      	CP   R18,R30
000698 073f      	CPC  R19,R31
000699 f46c      	BRGE _0x60082
                 _0x60083:
                 ; 0003 020C           {
                 ; 0003 020D                if(Flag.LmotorRun)
00069a 91e0 051e 	LDS  R30,_Flag
00069c 30e0      	CPI  R30,0
00069d f011      	BREQ _0x60085
                 ; 0003 020E                {
                 ; 0003 020F                     LStepCount++;
00069e 940e 0a83 	CALL SUBOPT_0x36
                 ; 0003 0210                     Flag.LmotorRun = FALSE;
                 ; 0003 0211                }
                 ; 0003 0212                if(Flag.RmotorRun)
                 _0x60085:
                +
0006a0 91e0 051f+LDS R30 , _Flag + ( 1 )
                 	__GETB1MN _Flag,1
0006a2 30e0      	CPI  R30,0
0006a3 f011      	BREQ _0x60086
                 ; 0003 0213                {
                 ; 0003 0214                     RStepCount++;
0006a4 940e 0a89 	CALL SUBOPT_0x37
                 ; 0003 0215                     Flag.RmotorRun = FALSE;
                 ; 0003 0216                }
                 ; 0003 0217           }
                 _0x60086:
0006a6 cfe5      	RJMP _0x60080
                 _0x60082:
                 ; 0003 0218           break;
                 ; 0003 0219      }
                 _0x6003E:
                 ; 0003 021A      TCCR1B = 0x00;
0006a7 e0e0      	LDI  R30,LOW(0)
0006a8 bdee      	OUT  0x2E,R30
                 ; 0003 021B      TCCR3B = 0x00;
0006a9 93e0 008a 	STS  138,R30
                 ; 0003 021C }
0006ab 940e 0cd5 	CALL __LOADLOCR4
                 _0x20A0004:
0006ad 9626      	ADIW R28,6
0006ae 9508      	RET
                 ;
                 ;// Timer 1 overflow interrupt service routine
                 ;interrupt [TIM1_OVF] void timer1_ovf_isr(void)
                 ; 0003 0220 {
                 _timer1_ovf_isr:
0006af 940e 0a9a 	CALL SUBOPT_0x39
                 ; 0003 0221 // Place your code here
                 ; 0003 0222      switch(direction_control)
                 ; 0003 0223      {
                 ; 0003 0224           case LEFT:
0006b1 30e5      	CPI  R30,LOW(0x5)
0006b2 e0a0      	LDI  R26,HIGH(0x5)
0006b3 07fa      	CPC  R31,R26
0006b4 f4a1      	BRNE _0x6008A
                 ; 0003 0225                PORTD |= (rotateL[LeftstepCount]<<4);
0006b5 940e 0aa6 	CALL SUBOPT_0x3A
0006b7 29e0      	OR   R30,R0
0006b8 bbe2      	OUT  0x12,R30
                 ; 0003 0226                PORTD &= ((rotateL[LeftstepCount]<<4)+0x0f);
0006b9 940e 0aa6 	CALL SUBOPT_0x3A
0006bb 5fe1      	SUBI R30,-LOW(15)
0006bc 21e0      	AND  R30,R0
0006bd bbe2      	OUT  0x12,R30
                 ; 0003 0227                LeftstepCount--;
0006be 01f2      	MOVW R30,R4
0006bf 9731      	SBIW R30,1
0006c0 012f      	MOVW R4,R30
                 ; 0003 0228                if(LeftstepCount < 0)
0006c1 2400      	CLR  R0
0006c2 1440      	CP   R4,R0
0006c3 0450      	CPC  R5,R0
0006c4 f41c      	BRGE _0x6008B
                 ; 0003 0229                     LeftstepCount = sizeof(rotateL)-1;
0006c5 e0e7      	LDI  R30,LOW(7)
0006c6 e0f0      	LDI  R31,HIGH(7)
0006c7 012f      	MOVW R4,R30
                 ; 0003 022A                break;
                 _0x6008B:
0006c8 c033      	RJMP _0x60089
                 ; 0003 022B           case RIGHT:
                 _0x6008A:
0006c9 30e6      	CPI  R30,LOW(0x6)
0006ca e0a0      	LDI  R26,HIGH(0x6)
0006cb 07fa      	CPC  R31,R26
0006cc f021      	BREQ _0x6008D
                 ; 0003 022C           case BACK:
0006cd 30e7      	CPI  R30,LOW(0x7)
0006ce e0a0      	LDI  R26,HIGH(0x7)
0006cf 07fa      	CPC  R31,R26
0006d0 f409      	BRNE _0x6008E
                 _0x6008D:
                 ; 0003 022D           case Quarter:
0006d1 c004      	RJMP _0x6008F
                 _0x6008E:
0006d2 30ee      	CPI  R30,LOW(0xE)
0006d3 e0a0      	LDI  R26,HIGH(0xE)
0006d4 07fa      	CPC  R31,R26
0006d5 f409      	BRNE _0x60090
                 _0x6008F:
                 ; 0003 022E           case ACCEL:
0006d6 c004      	RJMP _0x60091
                 _0x60090:
0006d7 30e9      	CPI  R30,LOW(0x9)
0006d8 e0a0      	LDI  R26,HIGH(0x9)
0006d9 07fa      	CPC  R31,R26
0006da f409      	BRNE _0x60092
                 _0x60091:
                 ; 0003 022F           case FORWARD:
0006db c004      	RJMP _0x60093
                 _0x60092:
0006dc 30e4      	CPI  R30,LOW(0x4)
0006dd e0a0      	LDI  R26,HIGH(0x4)
0006de 07fa      	CPC  R31,R26
0006df f409      	BRNE _0x60094
                 _0x60093:
                 ; 0003 0230           case HALF:
0006e0 c004      	RJMP _0x60095
                 _0x60094:
0006e1 30e8      	CPI  R30,LOW(0x8)
0006e2 e0a0      	LDI  R26,HIGH(0x8)
0006e3 07fa      	CPC  R31,R26
0006e4 f409      	BRNE _0x60096
                 _0x60095:
                 ; 0003 0231           case SmoothR:
0006e5 c004      	RJMP _0x60097
                 _0x60096:
0006e6 30ed      	CPI  R30,LOW(0xD)
0006e7 e0a0      	LDI  R26,HIGH(0xD)
0006e8 07fa      	CPC  R31,R26
0006e9 f491      	BRNE _0x60098
                 _0x60097:
                 ; 0003 0232                PORTD |= (rotateL[LeftstepCount]<<4);
0006ea 940e 0aa6 	CALL SUBOPT_0x3A
0006ec 29e0      	OR   R30,R0
0006ed bbe2      	OUT  0x12,R30
                 ; 0003 0233                PORTD &= ((rotateL[LeftstepCount]<<4)+0x0f);
0006ee 940e 0aa6 	CALL SUBOPT_0x3A
0006f0 5fe1      	SUBI R30,-LOW(15)
0006f1 21e0      	AND  R30,R0
0006f2 bbe2      	OUT  0x12,R30
                 ; 0003 0234                LeftstepCount++;
0006f3 01f2      	MOVW R30,R4
0006f4 9631      	ADIW R30,1
0006f5 012f      	MOVW R4,R30
                 ; 0003 0235                LeftstepCount %= sizeof(rotateL);
0006f6 01d2      	MOVW R26,R4
0006f7 e0e8      	LDI  R30,LOW(8)
0006f8 e0f0      	LDI  R31,HIGH(8)
0006f9 940e 0c63 	CALL __MODW21
0006fb 012f      	MOVW R4,R30
                 ; 0003 0236                break;
                 ; 0003 0237           case SmoothL:
                 _0x60098:
                 ; 0003 0238           break;
                 ; 0003 0239      }
                 _0x60089:
                 ; 0003 023A      Flag.LmotorRun = TRUE;
0006fc e0e1      	LDI  R30,LOW(1)
0006fd 93e0 051e 	STS  _Flag,R30
                 ; 0003 023B 
                 ; 0003 023C      TCNT1H = VelocityLeftmotorTCNT1 >> 8;
0006ff 91e0 0501 	LDS  R30,_VelocityLeftmotorTCNT1+1
000701 70f0      	ANDI R31,HIGH(0x0)
000702 bded      	OUT  0x2D,R30
                 ; 0003 023D      TCNT1L = VelocityLeftmotorTCNT1 & 0xff;
000703 91e0 0500 	LDS  R30,_VelocityLeftmotorTCNT1
000705 bdec      	OUT  0x2C,R30
                 ; 0003 023E }
000706 c057      	RJMP _0x600AD
                 ;
                 ;// Timer 3 overflow interrupt service routine
                 ;interrupt [TIM3_OVF] void timer3_ovf_isr(void)
                 ; 0003 0242 {
                 _timer3_ovf_isr:
000707 940e 0a9a 	CALL SUBOPT_0x39
                 ; 0003 0243 // Place your code here
                 ; 0003 0244      switch(direction_control)
                 ; 0003 0245      {
                 ; 0003 0246           case RIGHT:
000709 30e6      	CPI  R30,LOW(0x6)
00070a e0a0      	LDI  R26,HIGH(0x6)
00070b 07fa      	CPC  R31,R26
00070c f021      	BREQ _0x6009E
                 ; 0003 0247           case BACK:
00070d 30e7      	CPI  R30,LOW(0x7)
00070e e0a0      	LDI  R26,HIGH(0x7)
00070f 07fa      	CPC  R31,R26
000710 f4a1      	BRNE _0x6009F
                 _0x6009E:
                 ; 0003 0248                PORTE |= (rotateR[RightstepCount]<<4);
000711 940e 0aaf 	CALL SUBOPT_0x3B
000713 29e0      	OR   R30,R0
000714 b9e3      	OUT  0x3,R30
                 ; 0003 0249                PORTE &= ((rotateR[RightstepCount]<<4)+0x0f);
000715 940e 0aaf 	CALL SUBOPT_0x3B
000717 5fe1      	SUBI R30,-LOW(15)
000718 21e0      	AND  R30,R0
000719 b9e3      	OUT  0x3,R30
                 ; 0003 024A                RightstepCount--;
00071a 01f3      	MOVW R30,R6
00071b 9731      	SBIW R30,1
00071c 013f      	MOVW R6,R30
                 ; 0003 024B                if(RightstepCount < 0)
00071d 2400      	CLR  R0
00071e 1460      	CP   R6,R0
00071f 0470      	CPC  R7,R0
000720 f41c      	BRGE _0x600A0
                 ; 0003 024C                     RightstepCount = sizeof(rotateR)-1;
000721 e0e7      	LDI  R30,LOW(7)
000722 e0f0      	LDI  R31,HIGH(7)
000723 013f      	MOVW R6,R30
                 ; 0003 024D                break;
                 _0x600A0:
000724 c02e      	RJMP _0x6009C
                 ; 0003 024E           case ACCEL:
                 _0x6009F:
000725 30e9      	CPI  R30,LOW(0x9)
000726 e0a0      	LDI  R26,HIGH(0x9)
000727 07fa      	CPC  R31,R26
000728 f021      	BREQ _0x600A2
                 ; 0003 024F           case FORWARD:
000729 30e4      	CPI  R30,LOW(0x4)
00072a e0a0      	LDI  R26,HIGH(0x4)
00072b 07fa      	CPC  R31,R26
00072c f409      	BRNE _0x600A3
                 _0x600A2:
                 ; 0003 0250           case HALF:
00072d c004      	RJMP _0x600A4
                 _0x600A3:
00072e 30e8      	CPI  R30,LOW(0x8)
00072f e0a0      	LDI  R26,HIGH(0x8)
000730 07fa      	CPC  R31,R26
000731 f409      	BRNE _0x600A5
                 _0x600A4:
                 ; 0003 0251           case Quarter:
000732 c004      	RJMP _0x600A6
                 _0x600A5:
000733 30ee      	CPI  R30,LOW(0xE)
000734 e0a0      	LDI  R26,HIGH(0xE)
000735 07fa      	CPC  R31,R26
000736 f409      	BRNE _0x600A7
                 _0x600A6:
                 ; 0003 0252           case LEFT:
000737 c004      	RJMP _0x600A8
                 _0x600A7:
000738 30e5      	CPI  R30,LOW(0x5)
000739 e0a0      	LDI  R26,HIGH(0x5)
00073a 07fa      	CPC  R31,R26
00073b f409      	BRNE _0x600A9
                 _0x600A8:
                 ; 0003 0253           case SmoothL:
00073c c004      	RJMP _0x600AA
                 _0x600A9:
00073d 30ec      	CPI  R30,LOW(0xC)
00073e e0a0      	LDI  R26,HIGH(0xC)
00073f 07fa      	CPC  R31,R26
000740 f491      	BRNE _0x600AB
                 _0x600AA:
                 ; 0003 0254                PORTE |= (rotateR[RightstepCount]<<4);
000741 940e 0aaf 	CALL SUBOPT_0x3B
000743 29e0      	OR   R30,R0
000744 b9e3      	OUT  0x3,R30
                 ; 0003 0255                PORTE &= ((rotateR[RightstepCount]<<4)+0x0f);
000745 940e 0aaf 	CALL SUBOPT_0x3B
000747 5fe1      	SUBI R30,-LOW(15)
000748 21e0      	AND  R30,R0
000749 b9e3      	OUT  0x3,R30
                 ; 0003 0256                RightstepCount++;
00074a 01f3      	MOVW R30,R6
00074b 9631      	ADIW R30,1
00074c 013f      	MOVW R6,R30
                 ; 0003 0257                RightstepCount %= sizeof(rotateR);
00074d 01d3      	MOVW R26,R6
00074e e0e8      	LDI  R30,LOW(8)
00074f e0f0      	LDI  R31,HIGH(8)
000750 940e 0c63 	CALL __MODW21
000752 013f      	MOVW R6,R30
                 ; 0003 0258                break;
                 ; 0003 0259           case SmoothR:
                 _0x600AB:
                 ; 0003 025A           break;
                 ; 0003 025B      }
                 _0x6009C:
                 ; 0003 025C      Flag.RmotorRun = TRUE;
000753 e0e1      	LDI  R30,LOW(1)
                +
000754 93e0 051f+STS _Flag + ( 1 ) , R30
                 	__PUTB1MN _Flag,1
                 ; 0003 025D 
                 ; 0003 025E      TCNT3H = VelocityRightmotorTCNT3 >> 8;
000756 91e0 0503 	LDS  R30,_VelocityRightmotorTCNT3+1
000758 93e0 0089 	STS  137,R30
                 ; 0003 025F      TCNT3L = VelocityRightmotorTCNT3 & 0xff;
00075a 91e0 0502 	LDS  R30,_VelocityRightmotorTCNT3
00075c 93e0 0088 	STS  136,R30
                 ; 0003 0260 }
                 _0x600AD:
00075e 91e9      	LD   R30,Y+
00075f bfef      	OUT  SREG,R30
000760 91f9      	LD   R31,Y+
000761 91e9      	LD   R30,Y+
000762 91b9      	LD   R27,Y+
000763 91a9      	LD   R26,Y+
000764 9199      	LD   R25,Y+
000765 9019      	LD   R1,Y+
000766 9009      	LD   R0,Y+
000767 9518      	RETI
                 ;#include <mega128.h>
                 	#ifndef __SLEEP_DEFINED__
                 	#endif
                 ;#include "switch.h"
                 ;#include "LED.h"
                 ;
                 ;// Declare your global variables here
                 ;struct Buttons{
                 ;    char SW1;
                 ;    char SW2;
                 ;}Button;
                 ;
                 ;// External Interrupt 0 service routine
                 ;interrupt [EXT_INT0] void ext_int0_isr(void)
                 ; 0004 000D {
                 
                 	.CSEG
                 _ext_int0_isr:
000768 93ea      	ST   -Y,R30
                 ; 0004 000E // Place your code here
                 ; 0004 000F      Button.SW1 = TRUE;
000769 e0e1      	LDI  R30,LOW(1)
00076a 93e0 0520 	STS  _Button,R30
                 ; 0004 0010 }
00076c c004      	RJMP _0x80003
                 ;
                 ;// External Interrupt 1 service routine
                 ;interrupt [EXT_INT1] void ext_int1_isr(void)
                 ; 0004 0014 {
                 _ext_int1_isr:
00076d 93ea      	ST   -Y,R30
                 ; 0004 0015 // Place your code here
                 ; 0004 0016      Button.SW2 = TRUE;
00076e e0e1      	LDI  R30,LOW(1)
                +
00076f 93e0 0521+STS _Button + ( 1 ) , R30
                 	__PUTB1MN _Button,1
                 ; 0004 0017 }
                 _0x80003:
000771 91e9      	LD   R30,Y+
000772 9518      	RETI
                 ;
                 ;void InitializeSwitch(void)
                 ; 0004 001A {
                 _InitializeSwitch:
                 ; 0004 001B // 스위치 PORTD 0,1
                 ; 0004 001C      PORTD &= 0xfc;
000773 b3e2      	IN   R30,0x12
000774 7fec      	ANDI R30,LOW(0xFC)
000775 bbe2      	OUT  0x12,R30
                 ; 0004 001D      DDRD &= 0xfc;
000776 b3e1      	IN   R30,0x11
000777 7fec      	ANDI R30,LOW(0xFC)
000778 bbe1      	OUT  0x11,R30
                 ; 0004 001E 
                 ; 0004 001F      EICRA=0x0A;
000779 e0ea      	LDI  R30,LOW(10)
00077a 93e0 006a 	STS  106,R30
                 ; 0004 0020      EICRB=0x00;
00077c e0e0      	LDI  R30,LOW(0)
00077d bfea      	OUT  0x3A,R30
                 ; 0004 0021      EIMSK=0x03;
00077e e0e3      	LDI  R30,LOW(3)
00077f bfe9      	OUT  0x39,R30
                 ; 0004 0022      EIFR=0x03;
000780 bfe8      	OUT  0x38,R30
                 ; 0004 0023 }
000781 9508      	RET
                 ;char SW1(void)
                 ; 0004 0025 {
                 _SW1:
                 ; 0004 0026      char ret;
                 ; 0004 0027 
                 ; 0004 0028      ret = Button.SW1;
000782 931a      	ST   -Y,R17
                 ;	ret -> R17
000783 9110 0520 	LDS  R17,_Button
                 ; 0004 0029      Button.SW1 = FALSE;
000785 e0e0      	LDI  R30,LOW(0)
000786 93e0 0520 	STS  _Button,R30
                 ; 0004 002A 
                 ; 0004 002B      return ret;
000788 c006      	RJMP _0x20A0003
                 ; 0004 002C }
                 ;
                 ;char SW2(void)
                 ; 0004 002F {
                 _SW2:
                 ; 0004 0030      char ret;
                 ; 0004 0031 
                 ; 0004 0032      ret = Button.SW2;
000789 931a      	ST   -Y,R17
                 ;	ret -> R17
                +
00078a 9110 0521+LDS R17 , _Button + ( 1 )
                 	__GETBRMN 17,_Button,1
                 ; 0004 0033      Button.SW2 = FALSE;
00078c e0e0      	LDI  R30,LOW(0)
                +
00078d 93e0 0521+STS _Button + ( 1 ) , R30
                 	__PUTB1MN _Button,1
                 ; 0004 0034 
                 ; 0004 0035      return ret;
                 _0x20A0003:
00078f 2fe1      	MOV  R30,R17
000790 9119      	LD   R17,Y+
000791 9508      	RET
                 ; 0004 0036 }
                 	#ifndef __SLEEP_DEFINED__
                 	#endif
                 
                 	.CSEG
                 _putchar:
                 putchar0:
000792 9b5d           sbis usr,udre
000793 cffe           rjmp putchar0
000794 81e8           ld   r30,y
000795 b9ec           out  udr,r30
                 _0x20A0002:
000796 9621      	ADIW R28,1
000797 9508      	RET
                 _put_usart_G100:
000798 81ea      	LDD  R30,Y+2
000799 93ea      	ST   -Y,R30
00079a dff7      	RCALL _putchar
00079b 81a8      	LD   R26,Y
00079c 81b9      	LDD  R27,Y+1
00079d 91ed      	LD   R30,X+
00079e 91fd      	LD   R31,X+
00079f 9631      	ADIW R30,1
0007a0 93fe      	ST   -X,R31
0007a1 93ee      	ST   -X,R30
                 _0x20A0001:
0007a2 9623      	ADIW R28,3
0007a3 9508      	RET
                 __print_G100:
0007a4 9726      	SBIW R28,6
0007a5 940e 0ccc 	CALL __SAVELOCR6
0007a7 e010      	LDI  R17,0
0007a8 85ac      	LDD  R26,Y+12
0007a9 85bd      	LDD  R27,Y+12+1
0007aa e0e0      	LDI  R30,LOW(0)
0007ab e0f0      	LDI  R31,HIGH(0)
0007ac 93ed      	ST   X+,R30
0007ad 93fc      	ST   X,R31
                 _0x2000016:
0007ae 89ea      	LDD  R30,Y+18
0007af 89fb      	LDD  R31,Y+18+1
0007b0 9631      	ADIW R30,1
0007b1 8bea      	STD  Y+18,R30
0007b2 8bfb      	STD  Y+18+1,R31
0007b3 9731      	SBIW R30,1
0007b4 91e4      	LPM  R30,Z
0007b5 2f2e      	MOV  R18,R30
0007b6 30e0      	CPI  R30,0
0007b7 f411      	BRNE PC+3
0007b8 940c 08d1 	JMP _0x2000018
0007ba 2fe1      	MOV  R30,R17
0007bb 30e0      	CPI  R30,0
0007bc f439      	BRNE _0x200001C
0007bd 3225      	CPI  R18,37
0007be f411      	BRNE _0x200001D
0007bf e011      	LDI  R17,LOW(1)
0007c0 c002      	RJMP _0x200001E
                 _0x200001D:
0007c1 940e 0ab8 	CALL SUBOPT_0x3C
                 _0x200001E:
0007c3 c10c      	RJMP _0x200001B
                 _0x200001C:
0007c4 30e1      	CPI  R30,LOW(0x1)
0007c5 f4a9      	BRNE _0x200001F
0007c6 3225      	CPI  R18,37
0007c7 f419      	BRNE _0x2000020
0007c8 940e 0ab8 	CALL SUBOPT_0x3C
0007ca c104      	RJMP _0x20000C9
                 _0x2000020:
0007cb e012      	LDI  R17,LOW(2)
0007cc e040      	LDI  R20,LOW(0)
0007cd e000      	LDI  R16,LOW(0)
0007ce 322d      	CPI  R18,45
0007cf f411      	BRNE _0x2000021
0007d0 e001      	LDI  R16,LOW(1)
0007d1 c0fe      	RJMP _0x200001B
                 _0x2000021:
0007d2 322b      	CPI  R18,43
0007d3 f411      	BRNE _0x2000022
0007d4 e24b      	LDI  R20,LOW(43)
0007d5 c0fa      	RJMP _0x200001B
                 _0x2000022:
0007d6 3220      	CPI  R18,32
0007d7 f411      	BRNE _0x2000023
0007d8 e240      	LDI  R20,LOW(32)
0007d9 c0f6      	RJMP _0x200001B
                 _0x2000023:
0007da c002      	RJMP _0x2000024
                 _0x200001F:
0007db 30e2      	CPI  R30,LOW(0x2)
0007dc f439      	BRNE _0x2000025
                 _0x2000024:
0007dd e050      	LDI  R21,LOW(0)
0007de e013      	LDI  R17,LOW(3)
0007df 3320      	CPI  R18,48
0007e0 f411      	BRNE _0x2000026
0007e1 6800      	ORI  R16,LOW(128)
0007e2 c0ed      	RJMP _0x200001B
                 _0x2000026:
0007e3 c004      	RJMP _0x2000027
                 _0x2000025:
0007e4 30e3      	CPI  R30,LOW(0x3)
0007e5 f011      	BREQ PC+3
0007e6 940c 08d0 	JMP _0x200001B
                 _0x2000027:
0007e8 3320      	CPI  R18,48
0007e9 f010      	BRLO _0x200002A
0007ea 332a      	CPI  R18,58
0007eb f008      	BRLO _0x200002B
                 _0x200002A:
0007ec c007      	RJMP _0x2000029
                 _0x200002B:
0007ed e0aa      	LDI  R26,LOW(10)
0007ee 9f5a      	MUL  R21,R26
0007ef 2d50      	MOV  R21,R0
0007f0 2fe2      	MOV  R30,R18
0007f1 53e0      	SUBI R30,LOW(48)
0007f2 0f5e      	ADD  R21,R30
0007f3 c0dc      	RJMP _0x200001B
                 _0x2000029:
0007f4 2fe2      	MOV  R30,R18
0007f5 36e3      	CPI  R30,LOW(0x63)
0007f6 f449      	BRNE _0x200002F
0007f7 940e 0ac1 	CALL SUBOPT_0x3D
0007f9 89e8      	LDD  R30,Y+16
0007fa 89f9      	LDD  R31,Y+16+1
0007fb 81a4      	LDD  R26,Z+4
0007fc 93aa      	ST   -Y,R26
0007fd 940e 0ac7 	CALL SUBOPT_0x3E
0007ff c0cf      	RJMP _0x2000030
                 _0x200002F:
000800 37e3      	CPI  R30,LOW(0x73)
000801 f441      	BRNE _0x2000032
000802 940e 0ac1 	CALL SUBOPT_0x3D
000804 940e 0acf 	CALL SUBOPT_0x3F
000806 940e 0900 	CALL _strlen
000808 2f1e      	MOV  R17,R30
000809 c00a      	RJMP _0x2000033
                 _0x2000032:
00080a 37e0      	CPI  R30,LOW(0x70)
00080b f461      	BRNE _0x2000035
00080c 940e 0ac1 	CALL SUBOPT_0x3D
00080e 940e 0acf 	CALL SUBOPT_0x3F
000810 940e 090a 	CALL _strlenf
000812 2f1e      	MOV  R17,R30
000813 6008      	ORI  R16,LOW(8)
                 _0x2000033:
000814 6002      	ORI  R16,LOW(2)
000815 770f      	ANDI R16,LOW(127)
000816 e030      	LDI  R19,LOW(0)
000817 c035      	RJMP _0x2000036
                 _0x2000035:
000818 36e4      	CPI  R30,LOW(0x64)
000819 f011      	BREQ _0x2000039
00081a 36e9      	CPI  R30,LOW(0x69)
00081b f411      	BRNE _0x200003A
                 _0x2000039:
00081c 6004      	ORI  R16,LOW(4)
00081d c002      	RJMP _0x200003B
                 _0x200003A:
00081e 37e5      	CPI  R30,LOW(0x75)
00081f f431      	BRNE _0x200003C
                 _0x200003B:
000820 e8ec      	LDI  R30,LOW(_tbl10_G100*2)
000821 e0f0      	LDI  R31,HIGH(_tbl10_G100*2)
000822 83ee      	STD  Y+6,R30
000823 83ff      	STD  Y+6+1,R31
000824 e015      	LDI  R17,LOW(5)
000825 c00d      	RJMP _0x200003D
                 _0x200003C:
000826 35e8      	CPI  R30,LOW(0x58)
000827 f411      	BRNE _0x200003F
000828 6008      	ORI  R16,LOW(8)
000829 c004      	RJMP _0x2000040
                 _0x200003F:
00082a 37e8      	CPI  R30,LOW(0x78)
00082b f011      	BREQ PC+3
00082c 940c 08cf 	JMP _0x2000071
                 _0x2000040:
00082e e9e6      	LDI  R30,LOW(_tbl16_G100*2)
00082f e0f0      	LDI  R31,HIGH(_tbl16_G100*2)
000830 83ee      	STD  Y+6,R30
000831 83ff      	STD  Y+6+1,R31
000832 e014      	LDI  R17,LOW(4)
                 _0x200003D:
000833 ff02      	SBRS R16,2
000834 c014      	RJMP _0x2000042
000835 940e 0ac1 	CALL SUBOPT_0x3D
000837 940e 0ad9 	CALL SUBOPT_0x40
000839 85ab      	LDD  R26,Y+11
00083a 23aa      	TST  R26
00083b f43a      	BRPL _0x2000043
00083c 85ea      	LDD  R30,Y+10
00083d 85fb      	LDD  R31,Y+10+1
00083e 940e 0c26 	CALL __ANEGW1
000840 87ea      	STD  Y+10,R30
000841 87fb      	STD  Y+10+1,R31
000842 e24d      	LDI  R20,LOW(45)
                 _0x2000043:
000843 3040      	CPI  R20,0
000844 f011      	BREQ _0x2000044
000845 5f1f      	SUBI R17,-LOW(1)
000846 c001      	RJMP _0x2000045
                 _0x2000044:
000847 7f0b      	ANDI R16,LOW(251)
                 _0x2000045:
000848 c004      	RJMP _0x2000046
                 _0x2000042:
000849 940e 0ac1 	CALL SUBOPT_0x3D
00084b 940e 0ad9 	CALL SUBOPT_0x40
                 _0x2000046:
                 _0x2000036:
00084d fd00      	SBRC R16,0
00084e c011      	RJMP _0x2000047
                 _0x2000048:
00084f 1715      	CP   R17,R21
000850 f478      	BRSH _0x200004A
000851 ff07      	SBRS R16,7
000852 c008      	RJMP _0x200004B
000853 ff02      	SBRS R16,2
000854 c004      	RJMP _0x200004C
000855 7f0b      	ANDI R16,LOW(251)
000856 2f24      	MOV  R18,R20
000857 5011      	SUBI R17,LOW(1)
000858 c001      	RJMP _0x200004D
                 _0x200004C:
000859 e320      	LDI  R18,LOW(48)
                 _0x200004D:
00085a c001      	RJMP _0x200004E
                 _0x200004B:
00085b e220      	LDI  R18,LOW(32)
                 _0x200004E:
00085c 940e 0ab8 	CALL SUBOPT_0x3C
00085e 5051      	SUBI R21,LOW(1)
00085f cfef      	RJMP _0x2000048
                 _0x200004A:
                 _0x2000047:
000860 2f31      	MOV  R19,R17
000861 ff01      	SBRS R16,1
000862 c017      	RJMP _0x200004F
                 _0x2000050:
000863 3030      	CPI  R19,0
000864 f0a1      	BREQ _0x2000052
000865 ff03      	SBRS R16,3
000866 c006      	RJMP _0x2000053
000867 81ee      	LDD  R30,Y+6
000868 81ff      	LDD  R31,Y+6+1
000869 9125      	LPM  R18,Z+
00086a 83ee      	STD  Y+6,R30
00086b 83ff      	STD  Y+6+1,R31
00086c c005      	RJMP _0x2000054
                 _0x2000053:
00086d 81ae      	LDD  R26,Y+6
00086e 81bf      	LDD  R27,Y+6+1
00086f 912d      	LD   R18,X+
000870 83ae      	STD  Y+6,R26
000871 83bf      	STD  Y+6+1,R27
                 _0x2000054:
000872 940e 0ab8 	CALL SUBOPT_0x3C
000874 3050      	CPI  R21,0
000875 f009      	BREQ _0x2000055
000876 5051      	SUBI R21,LOW(1)
                 _0x2000055:
000877 5031      	SUBI R19,LOW(1)
000878 cfea      	RJMP _0x2000050
                 _0x2000052:
000879 c04b      	RJMP _0x2000056
                 _0x200004F:
                 _0x2000058:
00087a e320      	LDI  R18,LOW(48)
00087b 81ee      	LDD  R30,Y+6
00087c 81ff      	LDD  R31,Y+6+1
00087d 940e 0c83 	CALL __GETW1PF
00087f 87e8      	STD  Y+8,R30
000880 87f9      	STD  Y+8+1,R31
000881 81ee      	LDD  R30,Y+6
000882 81ff      	LDD  R31,Y+6+1
000883 9632      	ADIW R30,2
000884 83ee      	STD  Y+6,R30
000885 83ff      	STD  Y+6+1,R31
                 _0x200005A:
000886 85e8      	LDD  R30,Y+8
000887 85f9      	LDD  R31,Y+8+1
000888 85aa      	LDD  R26,Y+10
000889 85bb      	LDD  R27,Y+10+1
00088a 17ae      	CP   R26,R30
00088b 07bf      	CPC  R27,R31
00088c f050      	BRLO _0x200005C
00088d 5f2f      	SUBI R18,-LOW(1)
00088e 85a8      	LDD  R26,Y+8
00088f 85b9      	LDD  R27,Y+8+1
000890 85ea      	LDD  R30,Y+10
000891 85fb      	LDD  R31,Y+10+1
000892 1bea      	SUB  R30,R26
000893 0bfb      	SBC  R31,R27
000894 87ea      	STD  Y+10,R30
000895 87fb      	STD  Y+10+1,R31
000896 cfef      	RJMP _0x200005A
                 _0x200005C:
000897 332a      	CPI  R18,58
000898 f028      	BRLO _0x200005D
000899 ff03      	SBRS R16,3
00089a c002      	RJMP _0x200005E
00089b 5f29      	SUBI R18,-LOW(7)
00089c c001      	RJMP _0x200005F
                 _0x200005E:
00089d 5d29      	SUBI R18,-LOW(39)
                 _0x200005F:
                 _0x200005D:
00089e fd04      	SBRC R16,4
00089f c01a      	RJMP _0x2000061
0008a0 3321      	CPI  R18,49
0008a1 f420      	BRSH _0x2000063
0008a2 85a8      	LDD  R26,Y+8
0008a3 85b9      	LDD  R27,Y+8+1
0008a4 9711      	SBIW R26,1
0008a5 f409      	BRNE _0x2000062
                 _0x2000063:
0008a6 c009      	RJMP _0x20000CA
                 _0x2000062:
0008a7 1753      	CP   R21,R19
0008a8 f010      	BRLO _0x2000067
0008a9 ff00      	SBRS R16,0
0008aa c001      	RJMP _0x2000068
                 _0x2000067:
0008ab c013      	RJMP _0x2000066
                 _0x2000068:
0008ac e220      	LDI  R18,LOW(32)
0008ad ff07      	SBRS R16,7
0008ae c00b      	RJMP _0x2000069
0008af e320      	LDI  R18,LOW(48)
                 _0x20000CA:
0008b0 6100      	ORI  R16,LOW(16)
0008b1 ff02      	SBRS R16,2
0008b2 c007      	RJMP _0x200006A
0008b3 7f0b      	ANDI R16,LOW(251)
0008b4 934a      	ST   -Y,R20
0008b5 940e 0ac7 	CALL SUBOPT_0x3E
0008b7 3050      	CPI  R21,0
0008b8 f009      	BREQ _0x200006B
0008b9 5051      	SUBI R21,LOW(1)
                 _0x200006B:
                 _0x200006A:
                 _0x2000069:
                 _0x2000061:
0008ba 940e 0ab8 	CALL SUBOPT_0x3C
0008bc 3050      	CPI  R21,0
0008bd f009      	BREQ _0x200006C
0008be 5051      	SUBI R21,LOW(1)
                 _0x200006C:
                 _0x2000066:
0008bf 5031      	SUBI R19,LOW(1)
0008c0 85a8      	LDD  R26,Y+8
0008c1 85b9      	LDD  R27,Y+8+1
0008c2 9712      	SBIW R26,2
0008c3 f008      	BRLO _0x2000059
0008c4 cfb5      	RJMP _0x2000058
                 _0x2000059:
                 _0x2000056:
0008c5 ff00      	SBRS R16,0
0008c6 c008      	RJMP _0x200006D
                 _0x200006E:
0008c7 3050      	CPI  R21,0
0008c8 f031      	BREQ _0x2000070
0008c9 5051      	SUBI R21,LOW(1)
0008ca e2e0      	LDI  R30,LOW(32)
0008cb 93ea      	ST   -Y,R30
0008cc 940e 0ac7 	CALL SUBOPT_0x3E
0008ce cff8      	RJMP _0x200006E
                 _0x2000070:
                 _0x200006D:
                 _0x2000071:
                 _0x2000030:
                 _0x20000C9:
0008cf e010      	LDI  R17,LOW(0)
                 _0x200001B:
0008d0 cedd      	RJMP _0x2000016
                 _0x2000018:
0008d1 85ac      	LDD  R26,Y+12
0008d2 85bd      	LDD  R27,Y+12+1
0008d3 940e 0c7f 	CALL __GETW1P
0008d5 940e 0cd3 	CALL __LOADLOCR6
0008d7 9664      	ADIW R28,20
0008d8 9508      	RET
                 _printf:
0008d9 92ff      	PUSH R15
0008da 2ef8      	MOV  R15,R24
0008db 9726      	SBIW R28,6
0008dc 931a      	ST   -Y,R17
0008dd 930a      	ST   -Y,R16
0008de 01de      	MOVW R26,R28
0008df 9614      	ADIW R26,4
0008e0 940e 0c22 	CALL __ADDW2R15
0008e2 018d      	MOVW R16,R26
0008e3 e0e0      	LDI  R30,LOW(0)
0008e4 83ec      	STD  Y+4,R30
0008e5 83ed      	STD  Y+4+1,R30
0008e6 83ee      	STD  Y+6,R30
0008e7 83ef      	STD  Y+6+1,R30
0008e8 01de      	MOVW R26,R28
0008e9 9618      	ADIW R26,8
0008ea 940e 0c22 	CALL __ADDW2R15
0008ec 940e 0c7f 	CALL __GETW1P
0008ee 93fa      	ST   -Y,R31
0008ef 93ea      	ST   -Y,R30
0008f0 931a      	ST   -Y,R17
0008f1 930a      	ST   -Y,R16
0008f2 e9e8      	LDI  R30,LOW(_put_usart_G100)
0008f3 e0f7      	LDI  R31,HIGH(_put_usart_G100)
0008f4 93fa      	ST   -Y,R31
0008f5 93ea      	ST   -Y,R30
0008f6 01fe      	MOVW R30,R28
0008f7 9638      	ADIW R30,8
0008f8 93fa      	ST   -Y,R31
0008f9 93ea      	ST   -Y,R30
0008fa dea9      	RCALL __print_G100
0008fb 8119      	LDD  R17,Y+1
0008fc 8108      	LDD  R16,Y+0
0008fd 9628      	ADIW R28,8
0008fe 90ff      	POP  R15
0008ff 9508      	RET
                 
                 	.CSEG
                 
                 	.CSEG
                 
                 	.CSEG
                 _strlen:
000900 91a9          ld   r26,y+
000901 91b9          ld   r27,y+
000902 27ee          clr  r30
000903 27ff          clr  r31
                 strlen0:
000904 916d          ld   r22,x+
000905 2366          tst  r22
000906 f011          breq strlen1
000907 9631          adiw r30,1
000908 cffb          rjmp strlen0
                 strlen1:
000909 9508          ret
                 _strlenf:
00090a 27aa          clr  r26
00090b 27bb          clr  r27
00090c 91e9          ld   r30,y+
00090d 91f9          ld   r31,y+
                 strlenf0:
00090e 9005      	lpm  r0,z+
00090f 2000          tst  r0
000910 f011          breq strlenf1
000911 9611          adiw r26,1
000912 cffb          rjmp strlenf0
                 strlenf1:
000913 01fd          movw r30,r26
000914 9508          ret
                 
                 	.CSEG
                 
                 	.DSEG
                 
                 	.CSEG
                 
                 	.ESEG
                 _StandardSensor:
000000           	.BYTE 0x6
                 _CenterStandardSensor:
000006           	.BYTE 0x6
                 
                 	.DSEG
                 _VelocityLeftmotorTCNT1:
000500           	.BYTE 0x2
                 _VelocityRightmotorTCNT3:
000502           	.BYTE 0x2
                 _rotateR:
000504           	.BYTE 0x8
                 _rotateL:
00050c           	.BYTE 0x8
                 _vel_counter_high:
000514           	.BYTE 0x2
                 _Information:
000516           	.BYTE 0x8
                 _Flag:
00051e           	.BYTE 0x2
                 _Button:
000520           	.BYTE 0x2
                 __seed_G104:
000522           	.BYTE 0x4
                 
                 	.CSEG
                 ;OPTIMIZER ADDED SUBROUTINE, CALLED 9 TIMES, CODE SIZE REDUCTION:29 WORDS
                 SUBOPT_0x0:
000915 efe0      	LDI  R30,LOW(240)
000916 e0f0      	LDI  R31,HIGH(240)
000917 93fa      	ST   -Y,R31
000918 93ea      	ST   -Y,R30
000919 940c 0321 	JMP  _LED_OFF
                 
                 ;OPTIMIZER ADDED SUBROUTINE, CALLED 17 TIMES, CODE SIZE REDUCTION:61 WORDS
                 SUBOPT_0x1:
00091b e0ee      	LDI  R30,LOW(14)
00091c e0f0      	LDI  R31,HIGH(14)
00091d 93fa      	ST   -Y,R31
00091e 93ea      	ST   -Y,R30
00091f 940c 0585 	JMP  _Direction
                 
                 ;OPTIMIZER ADDED SUBROUTINE, CALLED 2 TIMES, CODE SIZE REDUCTION:1 WORDS
                 SUBOPT_0x2:
000921 93fa      	ST   -Y,R31
000922 93ea      	ST   -Y,R30
000923 940e 037a 	CALL _A
000925 cff5      	RJMP SUBOPT_0x1
                 
                 ;OPTIMIZER ADDED SUBROUTINE, CALLED 11 TIMES, CODE SIZE REDUCTION:17 WORDS
                 SUBOPT_0x3:
000926 93fa      	ST   -Y,R31
000927 93ea      	ST   -Y,R30
000928 940c 0ae1 	JMP  _delay_ms
                 
                 ;OPTIMIZER ADDED SUBROUTINE, CALLED 8 TIMES, CODE SIZE REDUCTION:11 WORDS
                 SUBOPT_0x4:
00092a e0e1      	LDI  R30,LOW(1)
00092b 93ea      	ST   -Y,R30
00092c 940c 0359 	JMP  _readSensor
                 
                 ;OPTIMIZER ADDED SUBROUTINE, CALLED 3 TIMES, CODE SIZE REDUCTION:1 WORDS
                 SUBOPT_0x5:
00092e 2766      	CLR  R22
00092f 2777      	CLR  R23
000930 940e 0c91 	CALL __PUTPARD1
000932 9508      	RET
                 
                 ;OPTIMIZER ADDED SUBROUTINE, CALLED 10 TIMES, CODE SIZE REDUCTION:15 WORDS
                 SUBOPT_0x6:
000933 e0e0      	LDI  R30,LOW(0)
000934 93ea      	ST   -Y,R30
000935 940c 0359 	JMP  _readSensor
                 
                 ;OPTIMIZER ADDED SUBROUTINE, CALLED 8 TIMES, CODE SIZE REDUCTION:11 WORDS
                 SUBOPT_0x7:
000937 e0e2      	LDI  R30,LOW(2)
000938 93ea      	ST   -Y,R30
000939 940c 0359 	JMP  _readSensor
                 
                 ;OPTIMIZER ADDED SUBROUTINE, CALLED 2 TIMES, CODE SIZE REDUCTION:1 WORDS
                 SUBOPT_0x8:
00093b e1e0      	LDI  R30,LOW(16)
00093c e0f0      	LDI  R31,HIGH(16)
00093d 93fa      	ST   -Y,R31
00093e 93ea      	ST   -Y,R30
00093f 940c 032b 	JMP  _LED_ON
                 
                 ;OPTIMIZER ADDED SUBROUTINE, CALLED 3 TIMES, CODE SIZE REDUCTION:1 WORDS
                 SUBOPT_0x9:
000941 e0a0      	LDI  R26,LOW(_StandardSensor)
000942 e0b0      	LDI  R27,HIGH(_StandardSensor)
000943 940e 0cb3 	CALL __EEPROMWRW
000945 9508      	RET
                 
                 ;OPTIMIZER ADDED SUBROUTINE, CALLED 14 TIMES, CODE SIZE REDUCTION:23 WORDS
                 SUBOPT_0xA:
000946 93fa      	ST   -Y,R31
000947 93ea      	ST   -Y,R30
000948 940c 032b 	JMP  _LED_ON
                 
                 ;OPTIMIZER ADDED SUBROUTINE, CALLED 3 TIMES, CODE SIZE REDUCTION:1 WORDS
                 SUBOPT_0xB:
00094a e0a6      	LDI  R26,LOW(_CenterStandardSensor)
00094b e0b0      	LDI  R27,HIGH(_CenterStandardSensor)
00094c 940e 0cb3 	CALL __EEPROMWRW
00094e 9508      	RET
                 
                 ;OPTIMIZER ADDED SUBROUTINE, CALLED 3 TIMES, CODE SIZE REDUCTION:5 WORDS
                 SUBOPT_0xC:
00094f 940e 0cb3 	CALL __EEPROMWRW
000951 efe0      	LDI  R30,LOW(240)
000952 e0f0      	LDI  R31,HIGH(240)
000953 cff2      	RJMP SUBOPT_0xA
                 
                 ;OPTIMIZER ADDED SUBROUTINE, CALLED 2 TIMES, CODE SIZE REDUCTION:51 WORDS
                 SUBOPT_0xD:
                +
000954 ece6     +LDI R30 , LOW ( 2 * _0x0 + ( 40 ) )
000955 e0f0     +LDI R31 , HIGH ( 2 * _0x0 + ( 40 ) )
                 	__POINTW1FN _0x0,40
000956 93fa      	ST   -Y,R31
000957 93ea      	ST   -Y,R30
000958 e0a0      	LDI  R26,LOW(_StandardSensor)
000959 e0b0      	LDI  R27,HIGH(_StandardSensor)
00095a 940e 0ca3 	CALL __EEPROMRDW
00095c 940e 0c39 	CALL __CWD1
00095e 940e 0c91 	CALL __PUTPARD1
                +
000960 e0a2     +LDI R26 , LOW ( _StandardSensor + ( 2 ) )
000961 e0b0     +LDI R27 , HIGH ( _StandardSensor + ( 2 ) )
                 	__POINTW2MN _StandardSensor,2
000962 940e 0ca3 	CALL __EEPROMRDW
000964 940e 0c39 	CALL __CWD1
000966 940e 0c91 	CALL __PUTPARD1
                +
000968 e0a4     +LDI R26 , LOW ( _StandardSensor + ( 4 ) )
000969 e0b0     +LDI R27 , HIGH ( _StandardSensor + ( 4 ) )
                 	__POINTW2MN _StandardSensor,4
00096a 940e 0ca3 	CALL __EEPROMRDW
00096c 940e 0c39 	CALL __CWD1
00096e 940e 0c91 	CALL __PUTPARD1
000970 e0a6      	LDI  R26,LOW(_CenterStandardSensor)
000971 e0b0      	LDI  R27,HIGH(_CenterStandardSensor)
000972 940e 0ca3 	CALL __EEPROMRDW
000974 940e 0c39 	CALL __CWD1
000976 940e 0c91 	CALL __PUTPARD1
                +
000978 e0a8     +LDI R26 , LOW ( _CenterStandardSensor + ( 2 ) )
000979 e0b0     +LDI R27 , HIGH ( _CenterStandardSensor + ( 2 ) )
                 	__POINTW2MN _CenterStandardSensor,2
00097a 940e 0ca3 	CALL __EEPROMRDW
00097c 940e 0c39 	CALL __CWD1
00097e 940e 0c91 	CALL __PUTPARD1
                +
000980 e0aa     +LDI R26 , LOW ( _CenterStandardSensor + ( 4 ) )
000981 e0b0     +LDI R27 , HIGH ( _CenterStandardSensor + ( 4 ) )
                 	__POINTW2MN _CenterStandardSensor,4
000982 940e 0ca3 	CALL __EEPROMRDW
000984 940e 0c39 	CALL __CWD1
000986 940e 0c91 	CALL __PUTPARD1
000988 e188      	LDI  R24,24
000989 940e 08d9 	CALL _printf
00098b 966a      	ADIW R28,26
00098c 9508      	RET
                 
                 ;OPTIMIZER ADDED SUBROUTINE, CALLED 4 TIMES, CODE SIZE REDUCTION:3 WORDS
                 SUBOPT_0xE:
                +
00098d e0a2     +LDI R26 , LOW ( _StandardSensor + ( 2 ) )
00098e e0b0     +LDI R27 , HIGH ( _StandardSensor + ( 2 ) )
                 	__POINTW2MN _StandardSensor,2
00098f 940e 0ca3 	CALL __EEPROMRDW
000991 9508      	RET
                 
                 ;OPTIMIZER ADDED SUBROUTINE, CALLED 4 TIMES, CODE SIZE REDUCTION:3 WORDS
                 SUBOPT_0xF:
000992 e6e4      	LDI  R30,LOW(100)
000993 e0f0      	LDI  R31,HIGH(100)
000994 cf91      	RJMP SUBOPT_0x3
                 
                 ;OPTIMIZER ADDED SUBROUTINE, CALLED 6 TIMES, CODE SIZE REDUCTION:12 WORDS
                 SUBOPT_0x10:
000995 01df      	MOVW R26,R30
000996 e0e6      	LDI  R30,LOW(6)
000997 e0f0      	LDI  R31,HIGH(6)
000998 940e 0c5e 	CALL __DIVW21
00099a 9508      	RET
                 
                 ;OPTIMIZER ADDED SUBROUTINE, CALLED 3 TIMES, CODE SIZE REDUCTION:11 WORDS
                 SUBOPT_0x11:
00099b 01db      	MOVW R26,R22
00099c 940e 0cb3 	CALL __EEPROMWRW
                +
00099e e000     +LDI R16 , LOW ( 0 )
00099f e010     +LDI R17 , HIGH ( 0 )
                 	__GETWRN 16,17,0
0009a0 efe4      	LDI  R30,LOW(500)
0009a1 e0f1      	LDI  R31,HIGH(500)
0009a2 cf83      	RJMP SUBOPT_0x3
                 
                 ;OPTIMIZER ADDED SUBROUTINE, CALLED 3 TIMES, CODE SIZE REDUCTION:1 WORDS
                 SUBOPT_0x12:
0009a3 e0a0      	LDI  R26,LOW(_StandardSensor)
0009a4 e0b0      	LDI  R27,HIGH(_StandardSensor)
0009a5 940e 0ca3 	CALL __EEPROMRDW
0009a7 9508      	RET
                 
                 ;OPTIMIZER ADDED SUBROUTINE, CALLED 3 TIMES, CODE SIZE REDUCTION:1 WORDS
                 SUBOPT_0x13:
0009a8 efe0      	LDI  R30,LOW(240)
0009a9 e0f0      	LDI  R31,HIGH(240)
0009aa cf9b      	RJMP SUBOPT_0xA
                 
                 ;OPTIMIZER ADDED SUBROUTINE, CALLED 6 TIMES, CODE SIZE REDUCTION:7 WORDS
                 SUBOPT_0x14:
                +
0009ab e0a4     +LDI R26 , LOW ( _StandardSensor + ( 4 ) )
0009ac e0b0     +LDI R27 , HIGH ( _StandardSensor + ( 4 ) )
                 	__POINTW2MN _StandardSensor,4
0009ad 940e 0ca3 	CALL __EEPROMRDW
0009af 9508      	RET
                 
                 ;OPTIMIZER ADDED SUBROUTINE, CALLED 5 TIMES, CODE SIZE REDUCTION:5 WORDS
                 SUBOPT_0x15:
0009b0 e0a6      	LDI  R26,LOW(_CenterStandardSensor)
0009b1 e0b0      	LDI  R27,HIGH(_CenterStandardSensor)
0009b2 940e 0ca3 	CALL __EEPROMRDW
0009b4 9508      	RET
                 
                 ;OPTIMIZER ADDED SUBROUTINE, CALLED 8 TIMES, CODE SIZE REDUCTION:11 WORDS
                 SUBOPT_0x16:
                +
0009b5 e0a8     +LDI R26 , LOW ( _CenterStandardSensor + ( 2 ) )
0009b6 e0b0     +LDI R27 , HIGH ( _CenterStandardSensor + ( 2 ) )
                 	__POINTW2MN _CenterStandardSensor,2
0009b7 940e 0ca3 	CALL __EEPROMRDW
0009b9 9508      	RET
                 
                 ;OPTIMIZER ADDED SUBROUTINE, CALLED 8 TIMES, CODE SIZE REDUCTION:11 WORDS
                 SUBOPT_0x17:
                +
0009ba e0aa     +LDI R26 , LOW ( _CenterStandardSensor + ( 4 ) )
0009bb e0b0     +LDI R27 , HIGH ( _CenterStandardSensor + ( 4 ) )
                 	__POINTW2MN _CenterStandardSensor,4
0009bc 940e 0ca3 	CALL __EEPROMRDW
0009be 9508      	RET
                 
                 ;OPTIMIZER ADDED SUBROUTINE, CALLED 4 TIMES, CODE SIZE REDUCTION:9 WORDS
                 SUBOPT_0x18:
0009bf e0ec      	LDI  R30,LOW(12)
0009c0 e0f0      	LDI  R31,HIGH(12)
0009c1 93fa      	ST   -Y,R31
0009c2 93ea      	ST   -Y,R30
0009c3 940c 0585 	JMP  _Direction
                 
                 ;OPTIMIZER ADDED SUBROUTINE, CALLED 4 TIMES, CODE SIZE REDUCTION:9 WORDS
                 SUBOPT_0x19:
0009c5 e0ed      	LDI  R30,LOW(13)
0009c6 e0f0      	LDI  R31,HIGH(13)
0009c7 93fa      	ST   -Y,R31
0009c8 93ea      	ST   -Y,R30
0009c9 940c 0585 	JMP  _Direction
                 
                 ;OPTIMIZER ADDED SUBROUTINE, CALLED 2 TIMES, CODE SIZE REDUCTION:1 WORDS
                 SUBOPT_0x1A:
0009cb e0e5      	LDI  R30,LOW(5)
0009cc e0f0      	LDI  R31,HIGH(5)
0009cd 93fa      	ST   -Y,R31
0009ce 93ea      	ST   -Y,R30
0009cf 940c 0585 	JMP  _Direction
                 
                 ;OPTIMIZER ADDED SUBROUTINE, CALLED 3 TIMES, CODE SIZE REDUCTION:11 WORDS
                 SUBOPT_0x1B:
                +
0009d1 ec88     +LDI R24 , LOW ( 200 )
0009d2 e090     +LDI R25 , HIGH ( 200 )
                +__DELAY_USW_LOOP :
0009d3 9701     +SBIW R24 , 1
0009d4 f7f1     +BRNE __DELAY_USW_LOOP
                 	__DELAY_USW 200
0009d5 81ea      	LDD  R30,Y+2
0009d6 93ea      	ST   -Y,R30
0009d7 940e 034b 	CALL _read_adc
0009d9 018f      	MOVW R16,R30
0009da 9508      	RET
                 
                 ;OPTIMIZER ADDED SUBROUTINE, CALLED 2 TIMES, CODE SIZE REDUCTION:7 WORDS
                 SUBOPT_0x1C:
0009db e7e8      	LDI  R30,LOW(65400)
0009dc efff      	LDI  R31,HIGH(65400)
0009dd 93e0 0500 	STS  _VelocityLeftmotorTCNT1,R30
0009df 93f0 0501 	STS  _VelocityLeftmotorTCNT1+1,R31
0009e1 93e0 0502 	STS  _VelocityRightmotorTCNT3,R30
0009e3 93f0 0503 	STS  _VelocityRightmotorTCNT3+1,R31
0009e5 9508      	RET
                 
                 ;OPTIMIZER ADDED SUBROUTINE, CALLED 3 TIMES, CODE SIZE REDUCTION:1 WORDS
                 SUBOPT_0x1D:
0009e6 91a0 0500 	LDS  R26,_VelocityLeftmotorTCNT1
0009e8 91b0 0501 	LDS  R27,_VelocityLeftmotorTCNT1+1
0009ea 9508      	RET
                 
                 ;OPTIMIZER ADDED SUBROUTINE, CALLED 5 TIMES, CODE SIZE REDUCTION:5 WORDS
                 SUBOPT_0x1E:
0009eb 93e0 0500 	STS  _VelocityLeftmotorTCNT1,R30
0009ed 93f0 0501 	STS  _VelocityLeftmotorTCNT1+1,R31
0009ef 9508      	RET
                 
                 ;OPTIMIZER ADDED SUBROUTINE, CALLED 3 TIMES, CODE SIZE REDUCTION:1 WORDS
                 SUBOPT_0x1F:
0009f0 91a0 0502 	LDS  R26,_VelocityRightmotorTCNT3
0009f2 91b0 0503 	LDS  R27,_VelocityRightmotorTCNT3+1
0009f4 9508      	RET
                 
                 ;OPTIMIZER ADDED SUBROUTINE, CALLED 5 TIMES, CODE SIZE REDUCTION:5 WORDS
                 SUBOPT_0x20:
0009f5 93e0 0502 	STS  _VelocityRightmotorTCNT3,R30
0009f7 93f0 0503 	STS  _VelocityRightmotorTCNT3+1,R31
0009f9 9508      	RET
                 
                 ;OPTIMIZER ADDED SUBROUTINE, CALLED 2 TIMES, CODE SIZE REDUCTION:1 WORDS
                 SUBOPT_0x21:
0009fa 940e 0ccc 	CALL __SAVELOCR6
                +
0009fc e040     +LDI R20 , LOW ( 0 )
0009fd e050     +LDI R21 , HIGH ( 0 )
                 	__GETWRN 20,21,0
0009fe cf2b      	RJMP SUBOPT_0x4
                 
                 ;OPTIMIZER ADDED SUBROUTINE, CALLED 2 TIMES, CODE SIZE REDUCTION:4 WORDS
                 SUBOPT_0x22:
0009ff 019f      	MOVW R18,R30
                +
000a00 90a0 0500+LDS R10 , 0 + ( _VelocityLeftmotorTCNT1 )
000a02 90b0 0501+LDS R11 , 0 + ( _VelocityLeftmotorTCNT1 ) + 1
                 	__GETWRMN 10,11,0,_VelocityLeftmotorTCNT1
                +
000a04 90c0 0502+LDS R12 , 0 + ( _VelocityRightmotorTCNT3 )
000a06 90d0 0503+LDS R13 , 0 + ( _VelocityRightmotorTCNT3 ) + 1
                 	__GETWRMN 12,13,0,_VelocityRightmotorTCNT3
000a08 9508      	RET
                 
                 ;OPTIMIZER ADDED SUBROUTINE, CALLED 3 TIMES, CODE SIZE REDUCTION:9 WORDS
                 SUBOPT_0x23:
                +
000a09 90a0 0514+LDS R10 , 0 + ( _vel_counter_high )
000a0b 90b0 0515+LDS R11 , 0 + ( _vel_counter_high ) + 1
                 	__GETWRMN 10,11,0,_vel_counter_high
                +
000a0d 90c0 0514+LDS R12 , 0 + ( _vel_counter_high )
000a0f 90d0 0515+LDS R13 , 0 + ( _vel_counter_high ) + 1
                 	__GETWRMN 12,13,0,_vel_counter_high
000a11 9508      	RET
                 
                 ;OPTIMIZER ADDED SUBROUTINE, CALLED 4 TIMES, CODE SIZE REDUCTION:3 WORDS
                 SUBOPT_0x24:
000a12 2766      	CLR  R22
000a13 2777      	CLR  R23
000a14 940e 0b53 	CALL __CDF1
000a16 9508      	RET
                 
                 ;OPTIMIZER ADDED SUBROUTINE, CALLED 2 TIMES, CODE SIZE REDUCTION:1 WORDS
                 SUBOPT_0x25:
                +
000a17 e0a0     +LDI R26 , LOW ( 0x40200000 )
000a18 e0b0     +LDI R27 , HIGH ( 0x40200000 )
000a19 e280     +LDI R24 , BYTE3 ( 0x40200000 )
000a1a e490     +LDI R25 , BYTE4 ( 0x40200000 )
                 	__GETD2N 0x40200000
000a1b 940e 0b8d 	CALL __ADDF12
000a1d 9508      	RET
                 
                 ;OPTIMIZER ADDED SUBROUTINE, CALLED 2 TIMES, CODE SIZE REDUCTION:7 WORDS
                 SUBOPT_0x26:
000a1e dff3      	RCALL SUBOPT_0x24
000a1f 01df      	MOVW R26,R30
000a20 01cb      	MOVW R24,R22
                +
000a21 e0e0     +LDI R30 , LOW ( 0x40200000 )
000a22 e0f0     +LDI R31 , HIGH ( 0x40200000 )
000a23 e260     +LDI R22 , BYTE3 ( 0x40200000 )
000a24 e470     +LDI R23 , BYTE4 ( 0x40200000 )
                 	__GETD1N 0x40200000
000a25 940e 0c96 	CALL __SWAPD12
000a27 940e 0b86 	CALL __SUBF12
000a29 9508      	RET
                 
                 ;OPTIMIZER ADDED SUBROUTINE, CALLED 2 TIMES, CODE SIZE REDUCTION:1 WORDS
                 SUBOPT_0x27:
000a2a 016f      	MOVW R12,R30
000a2b 91e0 0514 	LDS  R30,_vel_counter_high
000a2d 91f0 0515 	LDS  R31,_vel_counter_high+1
000a2f 963f      	ADIW R30,15
000a30 9508      	RET
                 
                 ;OPTIMIZER ADDED SUBROUTINE, CALLED 48 TIMES, CODE SIZE REDUCTION:91 WORDS
                 SUBOPT_0x28:
000a31 91e0 0514 	LDS  R30,_vel_counter_high
000a33 91f0 0515 	LDS  R31,_vel_counter_high+1
000a35 9508      	RET
                 
                 ;OPTIMIZER ADDED SUBROUTINE, CALLED 5 TIMES, CODE SIZE REDUCTION:21 WORDS
                 SUBOPT_0x29:
                +
000a36 92a0 0500+STS _VelocityLeftmotorTCNT1 + ( 0 ) , R10
000a38 92b0 0501+STS _VelocityLeftmotorTCNT1 + ( 0 ) + 1 , R11
                 	__PUTWMRN _VelocityLeftmotorTCNT1,0,10,11
                +
000a3a 92c0 0502+STS _VelocityRightmotorTCNT3 + ( 0 ) , R12
000a3c 92d0 0503+STS _VelocityRightmotorTCNT3 + ( 0 ) + 1 , R13
                 	__PUTWMRN _VelocityRightmotorTCNT3,0,12,13
000a3e 9508      	RET
                 
                 ;OPTIMIZER ADDED SUBROUTINE, CALLED 5 TIMES, CODE SIZE REDUCTION:33 WORDS
                 SUBOPT_0x2A:
000a3f 01f5      	MOVW R30,R10
000a40 9732      	SBIW R30,2
000a41 015f      	MOVW R10,R30
000a42 01f6      	MOVW R30,R12
000a43 9631      	ADIW R30,1
000a44 016f      	MOVW R12,R30
000a45 dfeb      	RCALL SUBOPT_0x28
000a46 9674      	ADIW R30,20
000a47 15ec      	CP   R30,R12
000a48 05fd      	CPC  R31,R13
000a49 9508      	RET
                 
                 ;OPTIMIZER ADDED SUBROUTINE, CALLED 5 TIMES, CODE SIZE REDUCTION:5 WORDS
                 SUBOPT_0x2B:
000a4a dfe6      	RCALL SUBOPT_0x28
000a4b 9674      	ADIW R30,20
000a4c 016f      	MOVW R12,R30
000a4d 9508      	RET
                 
                 ;OPTIMIZER ADDED SUBROUTINE, CALLED 5 TIMES, CODE SIZE REDUCTION:9 WORDS
                 SUBOPT_0x2C:
000a4e dfe2      	RCALL SUBOPT_0x28
000a4f 9774      	SBIW R30,20
000a50 16ae      	CP   R10,R30
000a51 06bf      	CPC  R11,R31
000a52 9508      	RET
                 
                 ;OPTIMIZER ADDED SUBROUTINE, CALLED 5 TIMES, CODE SIZE REDUCTION:5 WORDS
                 SUBOPT_0x2D:
000a53 dfdd      	RCALL SUBOPT_0x28
000a54 9774      	SBIW R30,20
000a55 015f      	MOVW R10,R30
000a56 9508      	RET
                 
                 ;OPTIMIZER ADDED SUBROUTINE, CALLED 5 TIMES, CODE SIZE REDUCTION:33 WORDS
                 SUBOPT_0x2E:
000a57 01f5      	MOVW R30,R10
000a58 9631      	ADIW R30,1
000a59 015f      	MOVW R10,R30
000a5a 01f6      	MOVW R30,R12
000a5b 9732      	SBIW R30,2
000a5c 016f      	MOVW R12,R30
000a5d dfd3      	RCALL SUBOPT_0x28
000a5e 9674      	ADIW R30,20
000a5f 15ea      	CP   R30,R10
000a60 05fb      	CPC  R31,R11
000a61 9508      	RET
                 
                 ;OPTIMIZER ADDED SUBROUTINE, CALLED 5 TIMES, CODE SIZE REDUCTION:5 WORDS
                 SUBOPT_0x2F:
000a62 dfce      	RCALL SUBOPT_0x28
000a63 9674      	ADIW R30,20
000a64 015f      	MOVW R10,R30
000a65 9508      	RET
                 
                 ;OPTIMIZER ADDED SUBROUTINE, CALLED 5 TIMES, CODE SIZE REDUCTION:9 WORDS
                 SUBOPT_0x30:
000a66 dfca      	RCALL SUBOPT_0x28
000a67 9774      	SBIW R30,20
000a68 16ce      	CP   R12,R30
000a69 06df      	CPC  R13,R31
000a6a 9508      	RET
                 
                 ;OPTIMIZER ADDED SUBROUTINE, CALLED 5 TIMES, CODE SIZE REDUCTION:5 WORDS
                 SUBOPT_0x31:
000a6b dfc5      	RCALL SUBOPT_0x28
000a6c 9774      	SBIW R30,20
000a6d 016f      	MOVW R12,R30
000a6e 9508      	RET
                 
                 ;OPTIMIZER ADDED SUBROUTINE, CALLED 3 TIMES, CODE SIZE REDUCTION:1 WORDS
                 SUBOPT_0x32:
                +
000a6f 81ec     +LDD R30 , Y + 4
000a70 81fd     +LDD R31 , Y + 4 + 1
000a71 816e     +LDD R22 , Y + 4 + 2
000a72 817f     +LDD R23 , Y + 4 + 3
                 	__GETD1S 4
000a73 9508      	RET
                 
                 ;OPTIMIZER ADDED SUBROUTINE, CALLED 4 TIMES, CODE SIZE REDUCTION:3 WORDS
                 SUBOPT_0x33:
000a74 940e 0bdd 	CALL __DIVF21
000a76 940e 0b1c 	CALL __CFD1
000a78 9508      	RET
                 
                 ;OPTIMIZER ADDED SUBROUTINE, CALLED 2 TIMES, CODE SIZE REDUCTION:1 WORDS
                 SUBOPT_0x34:
                +
000a79 edad     +LDI R26 , LOW ( 0x4285D2DD )
000a7a edb2     +LDI R27 , HIGH ( 0x4285D2DD )
000a7b e885     +LDI R24 , BYTE3 ( 0x4285D2DD )
000a7c e492     +LDI R25 , BYTE4 ( 0x4285D2DD )
                 	__GETD2N 0x4285D2DD
000a7d cff6      	RJMP SUBOPT_0x33
                 
                 ;OPTIMIZER ADDED SUBROUTINE, CALLED 5 TIMES, CODE SIZE REDUCTION:5 WORDS
                 SUBOPT_0x35:
000a7e 91e0 0516 	LDS  R30,_Information
000a80 91f0 0517 	LDS  R31,_Information+1
000a82 9508      	RET
                 
                 ;OPTIMIZER ADDED SUBROUTINE, CALLED 7 TIMES, CODE SIZE REDUCTION:15 WORDS
                 SUBOPT_0x36:
                +
000a83 5f0f     +SUBI R16 , LOW ( - 1 )
000a84 4f1f     +SBCI R17 , HIGH ( - 1 )
                 	__ADDWRN 16,17,1
000a85 e0e0      	LDI  R30,LOW(0)
000a86 93e0 051e 	STS  _Flag,R30
000a88 9508      	RET
                 
                 ;OPTIMIZER ADDED SUBROUTINE, CALLED 7 TIMES, CODE SIZE REDUCTION:15 WORDS
                 SUBOPT_0x37:
                +
000a89 5f2f     +SUBI R18 , LOW ( - 1 )
000a8a 4f3f     +SBCI R19 , HIGH ( - 1 )
                 	__ADDWRN 18,19,1
000a8b e0e0      	LDI  R30,LOW(0)
                +
000a8c 93e0 051f+STS _Flag + ( 1 ) , R30
                 	__PUTB1MN _Flag,1
000a8e 9508      	RET
                 
                 ;OPTIMIZER ADDED SUBROUTINE, CALLED 3 TIMES, CODE SIZE REDUCTION:17 WORDS
                 SUBOPT_0x38:
                +
000a8f 90a0 0500+LDS R10 , 0 + ( _VelocityLeftmotorTCNT1 )
000a91 90b0 0501+LDS R11 , 0 + ( _VelocityLeftmotorTCNT1 ) + 1
                 	__GETWRMN 10,11,0,_VelocityLeftmotorTCNT1
                +
000a93 90c0 0502+LDS R12 , 0 + ( _VelocityRightmotorTCNT3 )
000a95 90d0 0503+LDS R13 , 0 + ( _VelocityRightmotorTCNT3 ) + 1
                 	__GETWRMN 12,13,0,_VelocityRightmotorTCNT3
000a97 940e 0437 	CALL _adjustmouse_Super
000a99 cf9c      	RJMP SUBOPT_0x29
                 
                 ;OPTIMIZER ADDED SUBROUTINE, CALLED 2 TIMES, CODE SIZE REDUCTION:8 WORDS
                 SUBOPT_0x39:
000a9a 920a      	ST   -Y,R0
000a9b 921a      	ST   -Y,R1
000a9c 939a      	ST   -Y,R25
000a9d 93aa      	ST   -Y,R26
000a9e 93ba      	ST   -Y,R27
000a9f 93ea      	ST   -Y,R30
000aa0 93fa      	ST   -Y,R31
000aa1 b7ef      	IN   R30,SREG
000aa2 93ea      	ST   -Y,R30
000aa3 2de9      	MOV  R30,R9
000aa4 e0f0      	LDI  R31,0
000aa5 9508      	RET
                 
                 ;OPTIMIZER ADDED SUBROUTINE, CALLED 4 TIMES, CODE SIZE REDUCTION:15 WORDS
                 SUBOPT_0x3A:
000aa6 b202      	IN   R0,18
000aa7 e0ac      	LDI  R26,LOW(_rotateL)
000aa8 e0b5      	LDI  R27,HIGH(_rotateL)
000aa9 0da4      	ADD  R26,R4
000aaa 1db5      	ADC  R27,R5
000aab 91ec      	LD   R30,X
000aac 95e2      	SWAP R30
000aad 7fe0      	ANDI R30,0xF0
000aae 9508      	RET
                 
                 ;OPTIMIZER ADDED SUBROUTINE, CALLED 4 TIMES, CODE SIZE REDUCTION:15 WORDS
                 SUBOPT_0x3B:
000aaf b003      	IN   R0,3
000ab0 e0a4      	LDI  R26,LOW(_rotateR)
000ab1 e0b5      	LDI  R27,HIGH(_rotateR)
000ab2 0da6      	ADD  R26,R6
000ab3 1db7      	ADC  R27,R7
000ab4 91ec      	LD   R30,X
000ab5 95e2      	SWAP R30
000ab6 7fe0      	ANDI R30,0xF0
000ab7 9508      	RET
                 
                 ;OPTIMIZER ADDED SUBROUTINE, CALLED 5 TIMES, CODE SIZE REDUCTION:21 WORDS
                 SUBOPT_0x3C:
000ab8 932a      	ST   -Y,R18
000ab9 85ed      	LDD  R30,Y+13
000aba 85fe      	LDD  R31,Y+13+1
000abb 93fa      	ST   -Y,R31
000abc 93ea      	ST   -Y,R30
000abd 89e9      	LDD  R30,Y+17
000abe 89fa      	LDD  R31,Y+17+1
000abf 9509      	ICALL
000ac0 9508      	RET
                 
                 ;OPTIMIZER ADDED SUBROUTINE, CALLED 5 TIMES, CODE SIZE REDUCTION:9 WORDS
                 SUBOPT_0x3D:
000ac1 89e8      	LDD  R30,Y+16
000ac2 89f9      	LDD  R31,Y+16+1
000ac3 9734      	SBIW R30,4
000ac4 8be8      	STD  Y+16,R30
000ac5 8bf9      	STD  Y+16+1,R31
000ac6 9508      	RET
                 
                 ;OPTIMIZER ADDED SUBROUTINE, CALLED 3 TIMES, CODE SIZE REDUCTION:7 WORDS
                 SUBOPT_0x3E:
000ac7 85ed      	LDD  R30,Y+13
000ac8 85fe      	LDD  R31,Y+13+1
000ac9 93fa      	ST   -Y,R31
000aca 93ea      	ST   -Y,R30
000acb 89e9      	LDD  R30,Y+17
000acc 89fa      	LDD  R31,Y+17+1
000acd 9509      	ICALL
000ace 9508      	RET
                 
                 ;OPTIMIZER ADDED SUBROUTINE, CALLED 2 TIMES, CODE SIZE REDUCTION:6 WORDS
                 SUBOPT_0x3F:
000acf 89a8      	LDD  R26,Y+16
000ad0 89b9      	LDD  R27,Y+16+1
000ad1 9614      	ADIW R26,4
000ad2 940e 0c7f 	CALL __GETW1P
000ad4 83ee      	STD  Y+6,R30
000ad5 83ff      	STD  Y+6+1,R31
000ad6 93fa      	ST   -Y,R31
000ad7 93ea      	ST   -Y,R30
000ad8 9508      	RET
                 
                 ;OPTIMIZER ADDED SUBROUTINE, CALLED 2 TIMES, CODE SIZE REDUCTION:2 WORDS
                 SUBOPT_0x40:
000ad9 89a8      	LDD  R26,Y+16
000ada 89b9      	LDD  R27,Y+16+1
000adb 9614      	ADIW R26,4
000adc 940e 0c7f 	CALL __GETW1P
000ade 87ea      	STD  Y+10,R30
000adf 87fb      	STD  Y+10+1,R31
000ae0 9508      	RET
                 
                 
                 	.CSEG
                 _delay_ms:
000ae1 91e9      	ld   r30,y+
000ae2 91f9      	ld   r31,y+
000ae3 9630      	adiw r30,0
000ae4 f039      	breq __delay_ms1
                 __delay_ms0:
                +
000ae5 ea80     +LDI R24 , LOW ( 0xFA0 )
000ae6 e09f     +LDI R25 , HIGH ( 0xFA0 )
                +__DELAY_USW_LOOP :
000ae7 9701     +SBIW R24 , 1
000ae8 f7f1     +BRNE __DELAY_USW_LOOP
                 	__DELAY_USW 0xFA0
000ae9 95a8      	wdr
000aea 9731      	sbiw r30,1
000aeb f7c9      	brne __delay_ms0
                 __delay_ms1:
000aec 9508      	ret
                 
                 __ROUND_REPACK:
000aed 2355      	TST  R21
000aee f442      	BRPL __REPACK
000aef 3850      	CPI  R21,0x80
000af0 f411      	BRNE __ROUND_REPACK0
000af1 ffe0      	SBRS R30,0
000af2 c004      	RJMP __REPACK
                 __ROUND_REPACK0:
000af3 9631      	ADIW R30,1
000af4 1f69      	ADC  R22,R25
000af5 1f79      	ADC  R23,R25
000af6 f06b      	BRVS __REPACK1
                 
                 __REPACK:
000af7 e850      	LDI  R21,0x80
000af8 2757      	EOR  R21,R23
000af9 f411      	BRNE __REPACK0
000afa 935f      	PUSH R21
000afb c0cf      	RJMP __ZERORES
                 __REPACK0:
000afc 3f5f      	CPI  R21,0xFF
000afd f031      	BREQ __REPACK1
000afe 0f66      	LSL  R22
000aff 0c00      	LSL  R0
000b00 9557      	ROR  R21
000b01 9567      	ROR  R22
000b02 2f75      	MOV  R23,R21
000b03 9508      	RET
                 __REPACK1:
000b04 935f      	PUSH R21
000b05 2000      	TST  R0
000b06 f00a      	BRMI __REPACK2
000b07 c0cf      	RJMP __MAXRES
                 __REPACK2:
000b08 c0c8      	RJMP __MINRES
                 
                 __UNPACK:
000b09 e850      	LDI  R21,0x80
000b0a 2e19      	MOV  R1,R25
000b0b 2215      	AND  R1,R21
000b0c 0f88      	LSL  R24
000b0d 1f99      	ROL  R25
000b0e 2795      	EOR  R25,R21
000b0f 0f55      	LSL  R21
000b10 9587      	ROR  R24
                 
                 __UNPACK1:
000b11 e850      	LDI  R21,0x80
000b12 2e07      	MOV  R0,R23
000b13 2205      	AND  R0,R21
000b14 0f66      	LSL  R22
000b15 1f77      	ROL  R23
000b16 2775      	EOR  R23,R21
000b17 0f55      	LSL  R21
000b18 9567      	ROR  R22
000b19 9508      	RET
                 
                 __CFD1U:
000b1a 9468      	SET
000b1b c001      	RJMP __CFD1U0
                 __CFD1:
000b1c 94e8      	CLT
                 __CFD1U0:
000b1d 935f      	PUSH R21
000b1e dff2      	RCALL __UNPACK1
000b1f 3870      	CPI  R23,0x80
000b20 f018      	BRLO __CFD10
000b21 3f7f      	CPI  R23,0xFF
000b22 f408      	BRCC __CFD10
000b23 c0a7      	RJMP __ZERORES
                 __CFD10:
000b24 e156      	LDI  R21,22
000b25 1b57      	SUB  R21,R23
000b26 f4aa      	BRPL __CFD11
000b27 9551      	NEG  R21
000b28 3058      	CPI  R21,8
000b29 f40e      	BRTC __CFD19
000b2a 3059      	CPI  R21,9
                 __CFD19:
000b2b f030      	BRLO __CFD17
000b2c efef      	SER  R30
000b2d efff      	SER  R31
000b2e ef6f      	SER  R22
000b2f e77f      	LDI  R23,0x7F
000b30 f977      	BLD  R23,7
000b31 c01a      	RJMP __CFD15
                 __CFD17:
000b32 2777      	CLR  R23
000b33 2355      	TST  R21
000b34 f0b9      	BREQ __CFD15
                 __CFD18:
000b35 0fee      	LSL  R30
000b36 1fff      	ROL  R31
000b37 1f66      	ROL  R22
000b38 1f77      	ROL  R23
000b39 955a      	DEC  R21
000b3a f7d1      	BRNE __CFD18
000b3b c010      	RJMP __CFD15
                 __CFD11:
000b3c 2777      	CLR  R23
                 __CFD12:
000b3d 3058      	CPI  R21,8
000b3e f028      	BRLO __CFD13
000b3f 2fef      	MOV  R30,R31
000b40 2ff6      	MOV  R31,R22
000b41 2f67      	MOV  R22,R23
000b42 5058      	SUBI R21,8
000b43 cff9      	RJMP __CFD12
                 __CFD13:
000b44 2355      	TST  R21
000b45 f031      	BREQ __CFD15
                 __CFD14:
000b46 9576      	LSR  R23
000b47 9567      	ROR  R22
000b48 95f7      	ROR  R31
000b49 95e7      	ROR  R30
000b4a 955a      	DEC  R21
000b4b f7d1      	BRNE __CFD14
                 __CFD15:
000b4c 2000      	TST  R0
000b4d f40a      	BRPL __CFD16
000b4e d0db      	RCALL __ANEGD1
                 __CFD16:
000b4f 915f      	POP  R21
000b50 9508      	RET
                 
                 __CDF1U:
000b51 9468      	SET
000b52 c001      	RJMP __CDF1U0
                 __CDF1:
000b53 94e8      	CLT
                 __CDF1U0:
000b54 9730      	SBIW R30,0
000b55 4060      	SBCI R22,0
000b56 4070      	SBCI R23,0
000b57 f0b1      	BREQ __CDF10
000b58 2400      	CLR  R0
000b59 f026      	BRTS __CDF11
000b5a 2377      	TST  R23
000b5b f412      	BRPL __CDF11
000b5c 9400      	COM  R0
000b5d d0cc      	RCALL __ANEGD1
                 __CDF11:
000b5e 2e17      	MOV  R1,R23
000b5f e17e      	LDI  R23,30
000b60 2011      	TST  R1
                 __CDF12:
000b61 f032      	BRMI __CDF13
000b62 957a      	DEC  R23
000b63 0fee      	LSL  R30
000b64 1fff      	ROL  R31
000b65 1f66      	ROL  R22
000b66 1c11      	ROL  R1
000b67 cff9      	RJMP __CDF12
                 __CDF13:
000b68 2fef      	MOV  R30,R31
000b69 2ff6      	MOV  R31,R22
000b6a 2d61      	MOV  R22,R1
000b6b 935f      	PUSH R21
000b6c df8a      	RCALL __REPACK
000b6d 915f      	POP  R21
                 __CDF10:
000b6e 9508      	RET
                 
                 __SWAPACC:
000b6f 934f      	PUSH R20
000b70 01af      	MOVW R20,R30
000b71 01fd      	MOVW R30,R26
000b72 01da      	MOVW R26,R20
000b73 01ab      	MOVW R20,R22
000b74 01bc      	MOVW R22,R24
000b75 01ca      	MOVW R24,R20
000b76 2d40      	MOV  R20,R0
000b77 2c01      	MOV  R0,R1
000b78 2e14      	MOV  R1,R20
000b79 914f      	POP  R20
000b7a 9508      	RET
                 
                 __UADD12:
000b7b 0fea      	ADD  R30,R26
000b7c 1ffb      	ADC  R31,R27
000b7d 1f68      	ADC  R22,R24
000b7e 9508      	RET
                 
                 __NEGMAN1:
000b7f 95e0      	COM  R30
000b80 95f0      	COM  R31
000b81 9560      	COM  R22
000b82 5fef      	SUBI R30,-1
000b83 4fff      	SBCI R31,-1
000b84 4f6f      	SBCI R22,-1
000b85 9508      	RET
                 
                 __SUBF12:
000b86 935f      	PUSH R21
000b87 df81      	RCALL __UNPACK
000b88 3890      	CPI  R25,0x80
000b89 f171      	BREQ __ADDF129
000b8a e850      	LDI  R21,0x80
000b8b 2615      	EOR  R1,R21
                 
000b8c c004      	RJMP __ADDF120
                 
                 __ADDF12:
000b8d 935f      	PUSH R21
000b8e df7a      	RCALL __UNPACK
000b8f 3890      	CPI  R25,0x80
000b90 f139      	BREQ __ADDF129
                 
                 __ADDF120:
000b91 3870      	CPI  R23,0x80
000b92 f121      	BREQ __ADDF128
                 __ADDF121:
000b93 2f57      	MOV  R21,R23
000b94 1b59      	SUB  R21,R25
000b95 f12b      	BRVS __ADDF1211
000b96 f412      	BRPL __ADDF122
000b97 dfd7      	RCALL __SWAPACC
000b98 cffa      	RJMP __ADDF121
                 __ADDF122:
000b99 3158      	CPI  R21,24
000b9a f018      	BRLO __ADDF123
000b9b 27aa      	CLR  R26
000b9c 27bb      	CLR  R27
000b9d 2788      	CLR  R24
                 __ADDF123:
000b9e 3058      	CPI  R21,8
000b9f f028      	BRLO __ADDF124
000ba0 2fab      	MOV  R26,R27
000ba1 2fb8      	MOV  R27,R24
000ba2 2788      	CLR  R24
000ba3 5058      	SUBI R21,8
000ba4 cff9      	RJMP __ADDF123
                 __ADDF124:
000ba5 2355      	TST  R21
000ba6 f029      	BREQ __ADDF126
                 __ADDF125:
000ba7 9586      	LSR  R24
000ba8 95b7      	ROR  R27
000ba9 95a7      	ROR  R26
000baa 955a      	DEC  R21
000bab f7d9      	BRNE __ADDF125
                 __ADDF126:
000bac 2d50      	MOV  R21,R0
000bad 2551      	EOR  R21,R1
000bae f072      	BRMI __ADDF127
000baf dfcb      	RCALL __UADD12
000bb0 f438      	BRCC __ADDF129
000bb1 9567      	ROR  R22
000bb2 95f7      	ROR  R31
000bb3 95e7      	ROR  R30
000bb4 9573      	INC  R23
000bb5 f413      	BRVC __ADDF129
000bb6 c020      	RJMP __MAXRES
                 __ADDF128:
000bb7 dfb7      	RCALL __SWAPACC
                 __ADDF129:
000bb8 df3e      	RCALL __REPACK
000bb9 915f      	POP  R21
000bba 9508      	RET
                 __ADDF1211:
000bbb f7d8      	BRCC __ADDF128
000bbc cffb      	RJMP __ADDF129
                 __ADDF127:
000bbd 1bea      	SUB  R30,R26
000bbe 0bfb      	SBC  R31,R27
000bbf 0b68      	SBC  R22,R24
000bc0 f051      	BREQ __ZERORES
000bc1 f410      	BRCC __ADDF1210
000bc2 9400      	COM  R0
000bc3 dfbb      	RCALL __NEGMAN1
                 __ADDF1210:
000bc4 2366      	TST  R22
000bc5 f392      	BRMI __ADDF129
000bc6 0fee      	LSL  R30
000bc7 1fff      	ROL  R31
000bc8 1f66      	ROL  R22
000bc9 957a      	DEC  R23
000bca f7cb      	BRVC __ADDF1210
                 
                 __ZERORES:
000bcb 27ee      	CLR  R30
000bcc 27ff      	CLR  R31
000bcd 2766      	CLR  R22
000bce 2777      	CLR  R23
000bcf 915f      	POP  R21
000bd0 9508      	RET
                 
                 __MINRES:
000bd1 efef      	SER  R30
000bd2 efff      	SER  R31
000bd3 e76f      	LDI  R22,0x7F
000bd4 ef7f      	SER  R23
000bd5 915f      	POP  R21
000bd6 9508      	RET
                 
                 __MAXRES:
000bd7 efef      	SER  R30
000bd8 efff      	SER  R31
000bd9 e76f      	LDI  R22,0x7F
000bda e77f      	LDI  R23,0x7F
000bdb 915f      	POP  R21
000bdc 9508      	RET
                 
                 __DIVF21:
000bdd 935f      	PUSH R21
000bde df2a      	RCALL __UNPACK
000bdf 3870      	CPI  R23,0x80
000be0 f421      	BRNE __DIVF210
000be1 2011      	TST  R1
                 __DIVF211:
000be2 f40a      	BRPL __DIVF219
000be3 cfed      	RJMP __MINRES
                 __DIVF219:
000be4 cff2      	RJMP __MAXRES
                 __DIVF210:
000be5 3890      	CPI  R25,0x80
000be6 f409      	BRNE __DIVF218
                 __DIVF217:
000be7 cfe3      	RJMP __ZERORES
                 __DIVF218:
000be8 2401      	EOR  R0,R1
000be9 9408      	SEC
000bea 0b97      	SBC  R25,R23
000beb f41b      	BRVC __DIVF216
000bec f3d4      	BRLT __DIVF217
000bed 2000      	TST  R0
000bee cff3      	RJMP __DIVF211
                 __DIVF216:
000bef 2f79      	MOV  R23,R25
000bf0 931f      	PUSH R17
000bf1 932f      	PUSH R18
000bf2 933f      	PUSH R19
000bf3 934f      	PUSH R20
000bf4 2411      	CLR  R1
000bf5 2711      	CLR  R17
000bf6 2722      	CLR  R18
000bf7 2733      	CLR  R19
000bf8 2744      	CLR  R20
000bf9 2755      	CLR  R21
000bfa e290      	LDI  R25,32
                 __DIVF212:
000bfb 17ae      	CP   R26,R30
000bfc 07bf      	CPC  R27,R31
000bfd 0786      	CPC  R24,R22
000bfe 0741      	CPC  R20,R17
000bff f030      	BRLO __DIVF213
000c00 1bae      	SUB  R26,R30
000c01 0bbf      	SBC  R27,R31
000c02 0b86      	SBC  R24,R22
000c03 0b41      	SBC  R20,R17
000c04 9408      	SEC
000c05 c001      	RJMP __DIVF214
                 __DIVF213:
000c06 9488      	CLC
                 __DIVF214:
000c07 1f55      	ROL  R21
000c08 1f22      	ROL  R18
000c09 1f33      	ROL  R19
000c0a 1c11      	ROL  R1
000c0b 1faa      	ROL  R26
000c0c 1fbb      	ROL  R27
000c0d 1f88      	ROL  R24
000c0e 1f44      	ROL  R20
000c0f 959a      	DEC  R25
000c10 f751      	BRNE __DIVF212
000c11 01f9      	MOVW R30,R18
000c12 2d61      	MOV  R22,R1
000c13 914f      	POP  R20
000c14 913f      	POP  R19
000c15 912f      	POP  R18
000c16 911f      	POP  R17
000c17 2366      	TST  R22
000c18 f032      	BRMI __DIVF215
000c19 0f55      	LSL  R21
000c1a 1fee      	ROL  R30
000c1b 1fff      	ROL  R31
000c1c 1f66      	ROL  R22
000c1d 957a      	DEC  R23
000c1e f243      	BRVS __DIVF217
                 __DIVF215:
000c1f decd      	RCALL __ROUND_REPACK
000c20 915f      	POP  R21
000c21 9508      	RET
                 
                 __ADDW2R15:
000c22 2400      	CLR  R0
000c23 0daf      	ADD  R26,R15
000c24 1db0      	ADC  R27,R0
000c25 9508      	RET
                 
                 __ANEGW1:
000c26 95f1      	NEG  R31
000c27 95e1      	NEG  R30
000c28 40f0      	SBCI R31,0
000c29 9508      	RET
                 
                 __ANEGD1:
000c2a 95f0      	COM  R31
000c2b 9560      	COM  R22
000c2c 9570      	COM  R23
000c2d 95e1      	NEG  R30
000c2e 4fff      	SBCI R31,-1
000c2f 4f6f      	SBCI R22,-1
000c30 4f7f      	SBCI R23,-1
000c31 9508      	RET
                 
                 __ASRW3:
000c32 95f5      	ASR  R31
000c33 95e7      	ROR  R30
                 __ASRW2:
000c34 95f5      	ASR  R31
000c35 95e7      	ROR  R30
000c36 95f5      	ASR  R31
000c37 95e7      	ROR  R30
000c38 9508      	RET
                 
                 __CWD1:
000c39 2f6f      	MOV  R22,R31
000c3a 0f66      	ADD  R22,R22
000c3b 0b66      	SBC  R22,R22
000c3c 2f76      	MOV  R23,R22
000c3d 9508      	RET
                 
                 __MULW12U:
000c3e 9ffa      	MUL  R31,R26
000c3f 2df0      	MOV  R31,R0
000c40 9feb      	MUL  R30,R27
000c41 0df0      	ADD  R31,R0
000c42 9fea      	MUL  R30,R26
000c43 2de0      	MOV  R30,R0
000c44 0df1      	ADD  R31,R1
000c45 9508      	RET
                 
                 __MULW12:
000c46 d02a      	RCALL __CHKSIGNW
000c47 dff6      	RCALL __MULW12U
000c48 f40e      	BRTC __MULW121
000c49 dfdc      	RCALL __ANEGW1
                 __MULW121:
000c4a 9508      	RET
                 
                 __DIVW21U:
000c4b 2400      	CLR  R0
000c4c 2411      	CLR  R1
000c4d e190      	LDI  R25,16
                 __DIVW21U1:
000c4e 0faa      	LSL  R26
000c4f 1fbb      	ROL  R27
000c50 1c00      	ROL  R0
000c51 1c11      	ROL  R1
000c52 1a0e      	SUB  R0,R30
000c53 0a1f      	SBC  R1,R31
000c54 f418      	BRCC __DIVW21U2
000c55 0e0e      	ADD  R0,R30
000c56 1e1f      	ADC  R1,R31
000c57 c001      	RJMP __DIVW21U3
                 __DIVW21U2:
000c58 60a1      	SBR  R26,1
                 __DIVW21U3:
000c59 959a      	DEC  R25
000c5a f799      	BRNE __DIVW21U1
000c5b 01fd      	MOVW R30,R26
000c5c 01d0      	MOVW R26,R0
000c5d 9508      	RET
                 
                 __DIVW21:
000c5e d012      	RCALL __CHKSIGNW
000c5f dfeb      	RCALL __DIVW21U
000c60 f40e      	BRTC __DIVW211
000c61 dfc4      	RCALL __ANEGW1
                 __DIVW211:
000c62 9508      	RET
                 
                 __MODW21:
000c63 94e8      	CLT
000c64 ffb7      	SBRS R27,7
000c65 c004      	RJMP __MODW211
000c66 95a0      	COM  R26
000c67 95b0      	COM  R27
000c68 9611      	ADIW R26,1
000c69 9468      	SET
                 __MODW211:
000c6a fdf7      	SBRC R31,7
000c6b dfba      	RCALL __ANEGW1
000c6c dfde      	RCALL __DIVW21U
000c6d 01fd      	MOVW R30,R26
000c6e f40e      	BRTC __MODW212
000c6f dfb6      	RCALL __ANEGW1
                 __MODW212:
000c70 9508      	RET
                 
                 __CHKSIGNW:
000c71 94e8      	CLT
000c72 fff7      	SBRS R31,7
000c73 c002      	RJMP __CHKSW1
000c74 dfb1      	RCALL __ANEGW1
000c75 9468      	SET
                 __CHKSW1:
000c76 ffb7      	SBRS R27,7
000c77 c006      	RJMP __CHKSW2
000c78 95a0      	COM  R26
000c79 95b0      	COM  R27
000c7a 9611      	ADIW R26,1
000c7b f800      	BLD  R0,0
000c7c 9403      	INC  R0
000c7d fa00      	BST  R0,0
                 __CHKSW2:
000c7e 9508      	RET
                 
                 __GETW1P:
000c7f 91ed      	LD   R30,X+
000c80 91fc      	LD   R31,X
000c81 9711      	SBIW R26,1
000c82 9508      	RET
                 
                 __GETW1PF:
000c83 9005      	LPM  R0,Z+
000c84 91f4      	LPM  R31,Z
000c85 2de0      	MOV  R30,R0
000c86 9508      	RET
                 
                 __GETD1S0:
000c87 81e8      	LD   R30,Y
000c88 81f9      	LDD  R31,Y+1
000c89 816a      	LDD  R22,Y+2
000c8a 817b      	LDD  R23,Y+3
000c8b 9508      	RET
                 
                 __PUTD1S0:
000c8c 83e8      	ST   Y,R30
000c8d 83f9      	STD  Y+1,R31
000c8e 836a      	STD  Y+2,R22
000c8f 837b      	STD  Y+3,R23
000c90 9508      	RET
                 
                 __PUTPARD1:
000c91 937a      	ST   -Y,R23
000c92 936a      	ST   -Y,R22
000c93 93fa      	ST   -Y,R31
000c94 93ea      	ST   -Y,R30
000c95 9508      	RET
                 
                 __SWAPD12:
000c96 2e18      	MOV  R1,R24
000c97 2f86      	MOV  R24,R22
000c98 2d61      	MOV  R22,R1
000c99 2e19      	MOV  R1,R25
000c9a 2f97      	MOV  R25,R23
000c9b 2d71      	MOV  R23,R1
                 
                 __SWAPW12:
000c9c 2e1b      	MOV  R1,R27
000c9d 2fbf      	MOV  R27,R31
000c9e 2df1      	MOV  R31,R1
                 
                 __SWAPB12:
000c9f 2e1a      	MOV  R1,R26
000ca0 2fae      	MOV  R26,R30
000ca1 2de1      	MOV  R30,R1
000ca2 9508      	RET
                 
                 __EEPROMRDW:
000ca3 9611      	ADIW R26,1
000ca4 d002      	RCALL __EEPROMRDB
000ca5 2ffe      	MOV  R31,R30
000ca6 9711      	SBIW R26,1
                 
                 __EEPROMRDB:
000ca7 99e1      	SBIC EECR,EEWE
000ca8 cffe      	RJMP __EEPROMRDB
000ca9 93ff      	PUSH R31
000caa b7ff      	IN   R31,SREG
000cab 94f8      	CLI
000cac bbae      	OUT  EEARL,R26
000cad bbbf      	OUT  EEARH,R27
000cae 9ae0      	SBI  EECR,EERE
000caf b3ed      	IN   R30,EEDR
000cb0 bfff      	OUT  SREG,R31
000cb1 91ff      	POP  R31
000cb2 9508      	RET
                 
                 __EEPROMWRW:
000cb3 d007      	RCALL __EEPROMWRB
000cb4 9611      	ADIW R26,1
000cb5 93ef      	PUSH R30
000cb6 2fef      	MOV  R30,R31
000cb7 d003      	RCALL __EEPROMWRB
000cb8 91ef      	POP  R30
000cb9 9711      	SBIW R26,1
000cba 9508      	RET
                 
                 __EEPROMWRB:
000cbb 9be1      	SBIS EECR,EEWE
000cbc c002      	RJMP __EEPROMWRB1
000cbd 95a8      	WDR
000cbe cffc      	RJMP __EEPROMWRB
                 __EEPROMWRB1:
000cbf b79f      	IN   R25,SREG
000cc0 94f8      	CLI
000cc1 bbae      	OUT  EEARL,R26
000cc2 bbbf      	OUT  EEARH,R27
000cc3 9ae0      	SBI  EECR,EERE
000cc4 b38d      	IN   R24,EEDR
000cc5 17e8      	CP   R30,R24
000cc6 f019      	BREQ __EEPROMWRB0
000cc7 bbed      	OUT  EEDR,R30
000cc8 9ae2      	SBI  EECR,EEMWE
000cc9 9ae1      	SBI  EECR,EEWE
                 __EEPROMWRB0:
000cca bf9f      	OUT  SREG,R25
000ccb 9508      	RET
                 
                 __SAVELOCR6:
000ccc 935a      	ST   -Y,R21
                 __SAVELOCR5:
000ccd 934a      	ST   -Y,R20
                 __SAVELOCR4:
000cce 933a      	ST   -Y,R19
                 __SAVELOCR3:
000ccf 932a      	ST   -Y,R18
                 __SAVELOCR2:
000cd0 931a      	ST   -Y,R17
000cd1 930a      	ST   -Y,R16
000cd2 9508      	RET
                 
                 __LOADLOCR6:
000cd3 815d      	LDD  R21,Y+5
                 __LOADLOCR5:
000cd4 814c      	LDD  R20,Y+4
                 __LOADLOCR4:
000cd5 813b      	LDD  R19,Y+3
                 __LOADLOCR3:
000cd6 812a      	LDD  R18,Y+2
                 __LOADLOCR2:
000cd7 8119      	LDD  R17,Y+1
000cd8 8108      	LD   R16,Y
000cd9 9508      	RET
                 
                 ;END OF CODE MARKER
                 __END_OF_CODE:


RESOURCE USE INFORMATION
------------------------

Notice:
The register and instruction counts are symbol table hit counts,
and hence implicitly used resources are not counted, eg, the
'lpm' instruction without operands implicitly uses r0 and z,
none of which are counted.

x,y,z are separate entities in the symbol table and are
counted separately from r26..r31 here.

.dseg memory usage only counts static data declared with .byte

ATmega128L register use summary:
r0 :  76 r1 :  40 r2 :   0 r3 :   0 r4 :  10 r5 :   3 r6 :  10 r7 :   3 
r8 :   0 r9 :   2 r10:  20 r11:   8 r12:  19 r13:   8 r14:   0 r15:   4 
r16:  64 r17:  60 r18:  56 r19:  31 r20:  32 r21:  80 r22:  62 r23:  51 
r24:  39 r25:  29 r26: 205 r27:  92 r28:  16 r29:   1 r30: 683 r31: 306 
x  :  19 y  : 216 z  :  13 
Registers used: 31 out of 35 (88.6%)

ATmega128L instruction use summary:
.lds  :   0 .lds.l:   0 .sts  :   0 .sts.l:   0 adc   :  16 add   :  17 
adiw  :  36 and   :   7 andi  :  16 asr   :   4 bclr  :   0 bld   :   2 
brbc  :   0 brbs  :   0 brcc  :   5 brcs  :   0 break :   0 breq  :  56 
brge  :  28 brhc  :   0 brhs  :   0 brid  :   0 brie  :   0 brlo  :  12 
brlt  :   9 brmi  :   5 brne  :  70 brpl  :   7 brsh  :  36 brtc  :   4 
brts  :   1 brvc  :   3 brvs  :   3 bset  :   0 bst   :   1 call  : 370 
cbi   :   3 cbr   :   0 clc   :   1 clh   :   0 cli   :   3 cln   :   0 
clr   :  36 cls   :   0 clt   :   4 clv   :   0 clz   :   0 com   :  13 
cp    :  55 cpc   :  95 cpi   : 114 cpse  :   0 dec   :  10 des   :   0 
elpm  :   0 eor   :   6 fmul  :   0 fmuls :   0 fmulsu:   0 icall :   2 
ijmp  :   0 in    :  18 inc   :   2 jmp   :  57 ld    :  37 ldd   :  73 
ldi   : 348 lds   :  66 lpm   :  14 lsl   :  11 lsr   :   2 mov   :  54 
movw  :  79 mul   :   4 muls  :   0 mulsu :   0 neg   :   4 nop   :   0 
or    :   5 ori   :  11 out   :  56 pop   :  33 push  :  33 rcall :  41 
ret   :  95 reti  :   2 rjmp  : 143 rol   :  24 ror   :  16 sbc   :  11 
sbci  :  21 sbi   :   9 sbic  :   1 sbis  :   3 sbiw  :  32 sbr   :   1 
sbrc  :   3 sbrs  :  14 sec   :   2 seh   :   0 sei   :   1 sen   :   0 
ser   :   8 ses   :   0 set   :   4 sev   :   0 sez   :   0 sleep :   0 
spm   :   0 st    :  91 std   :  35 sts   :  63 sub   :   8 subi  :  33 
swap  :   2 tst   :  15 wdr   :   2 
Instructions used: 80 out of 117 (68.4%)

ATmega128L memory use summary [bytes]:
Segment   Begin    End      Code   Data   Used    Size   Use%
---------------------------------------------------------------
[.cseg] 0x000000 0x0019b4   6382    198   6580  131072   5.0%
[.dseg] 0x000100 0x000526      0     38     38    4351   0.9%
[.eseg] 0x000000 0x00000c      0     12     12    4096   0.3%

Assembly complete, 0 errors, 7 warnings
